---
triple:          'arm64-apple-darwin'
binary-path:     main
relocations:
  - { offsetInCU: 0xA896, offset: 0xA896, size: 0x8, addend: 0x0, symName: __ZStL8__ioinit, symObjAddr: 0x2CA08, symBinAddr: 0x100014000, symSize: 0x0 }
  - { offsetInCU: 0xA8E0, offset: 0xA8E0, size: 0x8, addend: 0x0, symName: __ZL14PORT_DISCOVERY, symObjAddr: 0x1428, symBinAddr: 0x10000A408, symSize: 0x0 }
  - { offsetInCU: 0xA8F7, offset: 0xA8F7, size: 0x8, addend: 0x0, symName: __ZL15PORT_MONITORING, symObjAddr: 0x142C, symBinAddr: 0x10000A40C, symSize: 0x0 }
  - { offsetInCU: 0xA90D, offset: 0xA90D, size: 0x8, addend: 0x0, symName: __ZL15PORT_MANAGEMENT, symObjAddr: 0x1430, symBinAddr: 0x10000A410, symSize: 0x0 }
  - { offsetInCU: 0xA91F, offset: 0xA91F, size: 0x8, addend: 0x0, symName: __ZL11BUFFER_SIZE, symObjAddr: 0x1434, symBinAddr: 0x10000A414, symSize: 0x0 }
  - { offsetInCU: 0xAE00, offset: 0xAE00, size: 0x8, addend: 0x0, symName: _is_manager, symObjAddr: 0x2CA10, symBinAddr: 0x100014008, symSize: 0x0 }
  - { offsetInCU: 0xAF52, offset: 0xAF52, size: 0x8, addend: 0x0, symName: _m, symObjAddr: 0x2CA18, symBinAddr: 0x100014010, symSize: 0x0 }
  - { offsetInCU: 0xB0AD, offset: 0xB0AD, size: 0x8, addend: 0x0, symName: _h, symObjAddr: 0x2CA20, symBinAddr: 0x100014018, symSize: 0x0 }
  - { offsetInCU: 0xB24C, offset: 0xB24C, size: 0x8, addend: 0x0, symName: __ZNSt10_Head_baseILm0EP7ManagerLb0EE7_M_headERKS2_, symObjAddr: 0x1360, symBinAddr: 0x100002904, symSize: 0x14 }
  - { offsetInCU: 0xB273, offset: 0xB273, size: 0x8, addend: 0x0, symName: __ZNSt10_Head_baseILm0EP4HostLb0EE7_M_headERKS2_, symObjAddr: 0x134C, symBinAddr: 0x1000028F0, symSize: 0x14 }
  - { offsetInCU: 0xB29A, offset: 0xB29A, size: 0x8, addend: 0x0, symName: __ZNSt10_Head_baseILm1ESt14default_deleteI4HostELb1EE7_M_headERS3_, symObjAddr: 0x1338, symBinAddr: 0x1000028DC, symSize: 0x14 }
  - { offsetInCU: 0xB2C1, offset: 0xB2C1, size: 0x8, addend: 0x0, symName: __ZNSt10_Head_baseILm0EP4HostLb0EE7_M_headERS2_, symObjAddr: 0x1324, symBinAddr: 0x1000028C8, symSize: 0x14 }
  - { offsetInCU: 0xB2E8, offset: 0xB2E8, size: 0x8, addend: 0x0, symName: __ZNSt11_Tuple_implILm0EJP7ManagerSt14default_deleteIS0_EEE7_M_headERKS4_, symObjAddr: 0x1308, symBinAddr: 0x1000028AC, symSize: 0x1C }
  - { offsetInCU: 0xB310, offset: 0xB310, size: 0x8, addend: 0x0, symName: __ZNSt10_Head_baseILm1ESt14default_deleteI7ManagerELb1EE7_M_headERS3_, symObjAddr: 0x12F4, symBinAddr: 0x100002898, symSize: 0x14 }
  - { offsetInCU: 0xB337, offset: 0xB337, size: 0x8, addend: 0x0, symName: __ZNSt10_Head_baseILm0EP7ManagerLb0EE7_M_headERS2_, symObjAddr: 0x12E0, symBinAddr: 0x100002884, symSize: 0x14 }
  - { offsetInCU: 0xB35E, offset: 0xB35E, size: 0x8, addend: 0x0, symName: __ZNSt11_Tuple_implILm0EJP4HostSt14default_deleteIS0_EEE7_M_headERKS4_, symObjAddr: 0x12C4, symBinAddr: 0x100002868, symSize: 0x1C }
  - { offsetInCU: 0xB386, offset: 0xB386, size: 0x8, addend: 0x0, symName: __ZNSt11_Tuple_implILm1EJSt14default_deleteI4HostEEE7_M_headERS3_, symObjAddr: 0x12A8, symBinAddr: 0x10000284C, symSize: 0x1C }
  - { offsetInCU: 0xB3AE, offset: 0xB3AE, size: 0x8, addend: 0x0, symName: __ZNSt11_Tuple_implILm0EJP4HostSt14default_deleteIS0_EEE7_M_headERS4_, symObjAddr: 0x128C, symBinAddr: 0x100002830, symSize: 0x1C }
  - { offsetInCU: 0xB3D6, offset: 0xB3D6, size: 0x8, addend: 0x0, symName: __ZSt12__get_helperILm0EP7ManagerJSt14default_deleteIS0_EEERKT0_RKSt11_Tuple_implIXT_EJS4_DpT1_EE, symObjAddr: 0x1270, symBinAddr: 0x100002814, symSize: 0x1C }
  - { offsetInCU: 0xB41C, offset: 0xB41C, size: 0x8, addend: 0x0, symName: __ZNSt11_Tuple_implILm1EJSt14default_deleteI7ManagerEEE7_M_headERS3_, symObjAddr: 0x1254, symBinAddr: 0x1000027F8, symSize: 0x1C }
  - { offsetInCU: 0xB444, offset: 0xB444, size: 0x8, addend: 0x0, symName: __ZNSt11_Tuple_implILm0EJP7ManagerSt14default_deleteIS0_EEE7_M_headERS4_, symObjAddr: 0x1238, symBinAddr: 0x1000027DC, symSize: 0x1C }
  - { offsetInCU: 0xB46C, offset: 0xB46C, size: 0x8, addend: 0x0, symName: __ZSt8_DestroyI9KnownHostEvPT_, symObjAddr: 0x1218, symBinAddr: 0x1000027BC, symSize: 0x20 }
  - { offsetInCU: 0xB4D2, offset: 0xB4D2, size: 0x8, addend: 0x0, symName: __ZN9KnownHostD1Ev, symObjAddr: 0x11E0, symBinAddr: 0x100002784, symSize: 0x38 }
  - { offsetInCU: 0xB4E4, offset: 0xB4E4, size: 0x8, addend: 0x0, symName: __ZSt11__addressofI9KnownHostEPT_RS1_, symObjAddr: 0x11CC, symBinAddr: 0x100002770, symSize: 0x14 }
  - { offsetInCU: 0xB514, offset: 0xB514, size: 0x8, addend: 0x0, symName: __ZSt12__get_helperILm0EP4HostJSt14default_deleteIS0_EEERKT0_RKSt11_Tuple_implIXT_EJS4_DpT1_EE, symObjAddr: 0x11B0, symBinAddr: 0x100002754, symSize: 0x1C }
  - { offsetInCU: 0xB55A, offset: 0xB55A, size: 0x8, addend: 0x0, symName: __ZSt12__get_helperILm1ESt14default_deleteI4HostEJEERT0_RSt11_Tuple_implIXT_EJS3_DpT1_EE, symObjAddr: 0x1194, symBinAddr: 0x100002738, symSize: 0x1C }
  - { offsetInCU: 0xB59A, offset: 0xB59A, size: 0x8, addend: 0x0, symName: __ZSt12__get_helperILm0EP4HostJSt14default_deleteIS0_EEERT0_RSt11_Tuple_implIXT_EJS4_DpT1_EE, symObjAddr: 0x1178, symBinAddr: 0x10000271C, symSize: 0x1C }
  - { offsetInCU: 0xB5E6, offset: 0xB5E6, size: 0x8, addend: 0x0, symName: __ZSt3getILm0EJP7ManagerSt14default_deleteIS0_EEERKNSt13tuple_elementIXT_ESt5tupleIJDpT0_EEE4typeERKS8_, symObjAddr: 0x115C, symBinAddr: 0x100002700, symSize: 0x1C }
  - { offsetInCU: 0xB628, offset: 0xB628, size: 0x8, addend: 0x0, symName: __ZSt12__get_helperILm1ESt14default_deleteI7ManagerEJEERT0_RSt11_Tuple_implIXT_EJS3_DpT1_EE, symObjAddr: 0x1140, symBinAddr: 0x1000026E4, symSize: 0x1C }
  - { offsetInCU: 0xB668, offset: 0xB668, size: 0x8, addend: 0x0, symName: __ZSt12__get_helperILm0EP7ManagerJSt14default_deleteIS0_EEERT0_RSt11_Tuple_implIXT_EJS4_DpT1_EE, symObjAddr: 0x1124, symBinAddr: 0x1000026C8, symSize: 0x1C }
  - { offsetInCU: 0xB6C8, offset: 0xB6C8, size: 0x8, addend: 0x0, symName: __ZNSt12_Destroy_auxILb0EE9__destroyIP9KnownHostEEvT_S4_, symObjAddr: 0x10D8, symBinAddr: 0x10000267C, symSize: 0x4C }
  - { offsetInCU: 0xB70B, offset: 0xB70B, size: 0x8, addend: 0x0, symName: __ZNSt15__new_allocatorI9KnownHostE10deallocateEPS0_m, symObjAddr: 0x1098, symBinAddr: 0x10000263C, symSize: 0x40 }
  - { offsetInCU: 0xB755, offset: 0xB755, size: 0x8, addend: 0x0, symName: __ZSt3getILm0EJP4HostSt14default_deleteIS0_EEERKNSt13tuple_elementIXT_ESt5tupleIJDpT0_EEE4typeERKS8_, symObjAddr: 0x107C, symBinAddr: 0x100002620, symSize: 0x1C }
  - { offsetInCU: 0xB79D, offset: 0xB79D, size: 0x8, addend: 0x0, symName: __ZSt3getILm1EJP4HostSt14default_deleteIS0_EEERNSt13tuple_elementIXT_ESt5tupleIJDpT0_EEE4typeERS8_, symObjAddr: 0x1060, symBinAddr: 0x100002604, symSize: 0x1C }
  - { offsetInCU: 0xB7E5, offset: 0xB7E5, size: 0x8, addend: 0x0, symName: __ZSt3getILm0EJP4HostSt14default_deleteIS0_EEERNSt13tuple_elementIXT_ESt5tupleIJDpT0_EEE4typeERS8_, symObjAddr: 0x1044, symBinAddr: 0x1000025E8, symSize: 0x1C }
  - { offsetInCU: 0xB889, offset: 0xB889, size: 0x8, addend: 0x0, symName: __ZNSt15__uniq_ptr_implI4HostSt14default_deleteIS0_EEC2EPS0_, symObjAddr: 0x1010, symBinAddr: 0x1000025B4, symSize: 0x34 }
  - { offsetInCU: 0xB87D, offset: 0xB87D, size: 0x8, addend: 0x0, symName: __ZNKSt15__uniq_ptr_implI7ManagerSt14default_deleteIS0_EE6_M_ptrEv, symObjAddr: 0xFF0, symBinAddr: 0x100002594, symSize: 0x20 }
  - { offsetInCU: 0xB8A9, offset: 0xB8A9, size: 0x8, addend: 0x0, symName: __ZSt3getILm1EJP7ManagerSt14default_deleteIS0_EEERNSt13tuple_elementIXT_ESt5tupleIJDpT0_EEE4typeERS8_, symObjAddr: 0xFD4, symBinAddr: 0x100002578, symSize: 0x1C }
  - { offsetInCU: 0xB8F1, offset: 0xB8F1, size: 0x8, addend: 0x0, symName: __ZSt3getILm0EJP7ManagerSt14default_deleteIS0_EEERNSt13tuple_elementIXT_ESt5tupleIJDpT0_EEE4typeERS8_, symObjAddr: 0xFB8, symBinAddr: 0x10000255C, symSize: 0x1C }
  - { offsetInCU: 0xB998, offset: 0xB998, size: 0x8, addend: 0x0, symName: __ZNSt15__uniq_ptr_implI7ManagerSt14default_deleteIS0_EEC2EPS0_, symObjAddr: 0xF84, symBinAddr: 0x100002528, symSize: 0x34 }
  - { offsetInCU: 0xB9EC, offset: 0xB9EC, size: 0x8, addend: 0x0, symName: __ZNSt12_Vector_baseI9KnownHostSaIS0_EE17_Vector_impl_dataC2EOS3_, symObjAddr: 0xF14, symBinAddr: 0x1000024B8, symSize: 0x70 }
  - { offsetInCU: 0xBA05, offset: 0xBA05, size: 0x8, addend: 0x0, symName: __ZSt4moveIRNSt12_Vector_baseI9KnownHostSaIS1_EE12_Vector_implEEONSt16remove_referenceIT_E4typeEOS7_, symObjAddr: 0xF00, symBinAddr: 0x1000024A4, symSize: 0x14 }
  - { offsetInCU: 0xBA35, offset: 0xBA35, size: 0x8, addend: 0x0, symName: __ZSt8_DestroyIP9KnownHostEvT_S2_, symObjAddr: 0xED8, symBinAddr: 0x10000247C, symSize: 0x28 }
  - { offsetInCU: 0xBABF, offset: 0xBABF, size: 0x8, addend: 0x0, symName: __ZNKSt15__uniq_ptr_implI4HostSt14default_deleteIS0_EE6_M_ptrEv, symObjAddr: 0xEB8, symBinAddr: 0x10000245C, symSize: 0x20 }
  - { offsetInCU: 0xBAEB, offset: 0xBAEB, size: 0x8, addend: 0x0, symName: __ZSt7forwardISt14default_deleteI4HostEEOT_RNSt16remove_referenceIS3_E4typeE, symObjAddr: 0xEA4, symBinAddr: 0x100002448, symSize: 0x14 }
  - { offsetInCU: 0xBB1F, offset: 0xBB1F, size: 0x8, addend: 0x0, symName: __ZNSt15__uniq_ptr_implI4HostSt14default_deleteIS0_EE10_M_deleterEv, symObjAddr: 0xE88, symBinAddr: 0x10000242C, symSize: 0x1C }
  - { offsetInCU: 0xBB49, offset: 0xBB49, size: 0x8, addend: 0x0, symName: __ZNSt15__uniq_ptr_implI4HostSt14default_deleteIS0_EE7releaseEv, symObjAddr: 0xE54, symBinAddr: 0x1000023F8, symSize: 0x34 }
  - { offsetInCU: 0xBB82, offset: 0xBB82, size: 0x8, addend: 0x0, symName: __ZNSt15__uniq_ptr_implI4HostSt14default_deleteIS0_EE5resetEPS0_, symObjAddr: 0xDFC, symBinAddr: 0x1000023A0, symSize: 0x58 }
  - { offsetInCU: 0xBBCA, offset: 0xBBCA, size: 0x8, addend: 0x0, symName: __ZNKSt14default_deleteI4HostEclEPS0_, symObjAddr: 0xDCC, symBinAddr: 0x100002370, symSize: 0x30 }
  - { offsetInCU: 0xBC05, offset: 0xBC05, size: 0x8, addend: 0x0, symName: __ZSt4moveIRP4HostEONSt16remove_referenceIT_E4typeEOS4_, symObjAddr: 0xDB8, symBinAddr: 0x10000235C, symSize: 0x14 }
  - { offsetInCU: 0xBC39, offset: 0xBC39, size: 0x8, addend: 0x0, symName: __ZNSt10unique_ptrI4HostSt14default_deleteIS0_EE11get_deleterEv, symObjAddr: 0xD9C, symBinAddr: 0x100002340, symSize: 0x1C }
  - { offsetInCU: 0xBC63, offset: 0xBC63, size: 0x8, addend: 0x0, symName: __ZNSt15__uniq_ptr_implI4HostSt14default_deleteIS0_EE6_M_ptrEv, symObjAddr: 0xD80, symBinAddr: 0x100002324, symSize: 0x1C }
  - { offsetInCU: 0xBCF6, offset: 0xBCF6, size: 0x8, addend: 0x0, symName: __ZNSt10unique_ptrI4HostSt14default_deleteIS0_EEC1IS2_vEEPS0_, symObjAddr: 0xD58, symBinAddr: 0x1000022FC, symSize: 0x28 }
  - { offsetInCU: 0xBD6E, offset: 0xBD6E, size: 0x8, addend: 0x0, symName: __ZNSt15__uniq_ptr_dataI4HostSt14default_deleteIS0_ELb1ELb1EECI1St15__uniq_ptr_implIS0_S2_EEPS0_, symObjAddr: 0xD30, symBinAddr: 0x1000022D4, symSize: 0x28 }
  - { offsetInCU: 0xBD46, offset: 0xBD46, size: 0x8, addend: 0x0, symName: __ZSt7forwardI4HostEOT_RNSt16remove_referenceIS1_E4typeE, symObjAddr: 0xD1C, symBinAddr: 0x1000022C0, symSize: 0x14 }
  - { offsetInCU: 0xBD7A, offset: 0xBD7A, size: 0x8, addend: 0x0, symName: __ZNKSt10unique_ptrI7ManagerSt14default_deleteIS0_EE3getEv, symObjAddr: 0xD00, symBinAddr: 0x1000022A4, symSize: 0x1C }
  - { offsetInCU: 0xBDA6, offset: 0xBDA6, size: 0x8, addend: 0x0, symName: __ZSt7forwardISt14default_deleteI7ManagerEEOT_RNSt16remove_referenceIS3_E4typeE, symObjAddr: 0xCEC, symBinAddr: 0x100002290, symSize: 0x14 }
  - { offsetInCU: 0xBDDA, offset: 0xBDDA, size: 0x8, addend: 0x0, symName: __ZNSt15__uniq_ptr_implI7ManagerSt14default_deleteIS0_EE10_M_deleterEv, symObjAddr: 0xCD0, symBinAddr: 0x100002274, symSize: 0x1C }
  - { offsetInCU: 0xBE04, offset: 0xBE04, size: 0x8, addend: 0x0, symName: __ZNSt15__uniq_ptr_implI7ManagerSt14default_deleteIS0_EE7releaseEv, symObjAddr: 0xC9C, symBinAddr: 0x100002240, symSize: 0x34 }
  - { offsetInCU: 0xBE3D, offset: 0xBE3D, size: 0x8, addend: 0x0, symName: __ZNSt15__uniq_ptr_implI7ManagerSt14default_deleteIS0_EE5resetEPS0_, symObjAddr: 0xC44, symBinAddr: 0x1000021E8, symSize: 0x58 }
  - { offsetInCU: 0xBE85, offset: 0xBE85, size: 0x8, addend: 0x0, symName: __ZNKSt14default_deleteI7ManagerEclEPS0_, symObjAddr: 0xC00, symBinAddr: 0x1000021A4, symSize: 0x44 }
  - { offsetInCU: 0xBEC0, offset: 0xBEC0, size: 0x8, addend: 0x0, symName: __ZSt4moveIRP7ManagerEONSt16remove_referenceIT_E4typeEOS4_, symObjAddr: 0xBEC, symBinAddr: 0x100002190, symSize: 0x14 }
  - { offsetInCU: 0xBEF4, offset: 0xBEF4, size: 0x8, addend: 0x0, symName: __ZNSt10unique_ptrI7ManagerSt14default_deleteIS0_EE11get_deleterEv, symObjAddr: 0xBD0, symBinAddr: 0x100002174, symSize: 0x1C }
  - { offsetInCU: 0xBF1E, offset: 0xBF1E, size: 0x8, addend: 0x0, symName: __ZNSt15__uniq_ptr_implI7ManagerSt14default_deleteIS0_EE6_M_ptrEv, symObjAddr: 0xBB4, symBinAddr: 0x100002158, symSize: 0x1C }
  - { offsetInCU: 0xBFB4, offset: 0xBFB4, size: 0x8, addend: 0x0, symName: __ZNSt10unique_ptrI7ManagerSt14default_deleteIS0_EEC1IS2_vEEPS0_, symObjAddr: 0xB8C, symBinAddr: 0x100002130, symSize: 0x28 }
  - { offsetInCU: 0xC02C, offset: 0xC02C, size: 0x8, addend: 0x0, symName: __ZNSt15__uniq_ptr_dataI7ManagerSt14default_deleteIS0_ELb1ELb1EECI1St15__uniq_ptr_implIS0_S2_EEPS0_, symObjAddr: 0xB64, symBinAddr: 0x100002108, symSize: 0x28 }
  - { offsetInCU: 0xC057, offset: 0xC057, size: 0x8, addend: 0x0, symName: __ZNSt12_Vector_baseI9KnownHostSaIS0_EE12_Vector_implC1EOS3_, symObjAddr: 0xAF8, symBinAddr: 0x10000209C, symSize: 0x6C }
  - { offsetInCU: 0xC0A7, offset: 0xC0A7, size: 0x8, addend: 0x0, symName: __ZSt7forwardI7ManagerEOT_RNSt16remove_referenceIS1_E4typeE, symObjAddr: 0xAE4, symBinAddr: 0x100002088, symSize: 0x14 }
  - { offsetInCU: 0xC116, offset: 0xC116, size: 0x8, addend: 0x0, symName: __ZNSt12_Vector_baseI9KnownHostSaIS0_EE19_M_get_Tp_allocatorEv, symObjAddr: 0xAD0, symBinAddr: 0x100002074, symSize: 0x14 }
  - { offsetInCU: 0xC140, offset: 0xC140, size: 0x8, addend: 0x0, symName: __ZNSt12_Vector_baseI9KnownHostSaIS0_EE13_M_deallocateEPS0_m, symObjAddr: 0xA78, symBinAddr: 0x10000201C, symSize: 0x58 }
  - { offsetInCU: 0xC202, offset: 0xC202, size: 0x8, addend: 0x0, symName: __ZNSt15__new_allocatorI9KnownHostED2Ev, symObjAddr: 0xA64, symBinAddr: 0x100002008, symSize: 0x14 }
  - { offsetInCU: 0xC256, offset: 0xC256, size: 0x8, addend: 0x0, symName: __ZNSt12_Vector_baseI9KnownHostSaIS0_EE17_Vector_impl_dataC2Ev, symObjAddr: 0xA38, symBinAddr: 0x100001FDC, symSize: 0x2C }
  - { offsetInCU: 0xC255, offset: 0xC255, size: 0x8, addend: 0x0, symName: __ZNKSt10unique_ptrI4HostSt14default_deleteIS0_EE3getEv, symObjAddr: 0xA1C, symBinAddr: 0x100001FC0, symSize: 0x1C }
  - { offsetInCU: 0xC27F, offset: 0xC27F, size: 0x8, addend: 0x0, symName: __ZNSt15__uniq_ptr_implI4HostSt14default_deleteIS0_EEaSEOS3_, symObjAddr: 0x9D8, symBinAddr: 0x100001F7C, symSize: 0x44 }
  - { offsetInCU: 0xC31B, offset: 0xC31B, size: 0x8, addend: 0x0, symName: __ZNSt10unique_ptrI4HostSt14default_deleteIS0_EED1Ev, symObjAddr: 0x970, symBinAddr: 0x100001F14, symSize: 0x68 }
  - { offsetInCU: 0xC338, offset: 0xC338, size: 0x8, addend: 0x0, symName: __ZSt11make_uniqueI4HostJS0_EENSt8__detail9_MakeUniqIT_E15__single_objectEDpOT0_, symObjAddr: 0x8E4, symBinAddr: 0x100001E88, symSize: 0x8C }
  - { offsetInCU: 0xC378, offset: 0xC378, size: 0x8, addend: 0x0, symName: __ZNKSt10unique_ptrI7ManagerSt14default_deleteIS0_EEptEv, symObjAddr: 0x8C8, symBinAddr: 0x100001E6C, symSize: 0x1C }
  - { offsetInCU: 0xC3A2, offset: 0xC3A2, size: 0x8, addend: 0x0, symName: __ZNSt15__uniq_ptr_implI7ManagerSt14default_deleteIS0_EEaSEOS3_, symObjAddr: 0x884, symBinAddr: 0x100001E28, symSize: 0x44 }
  - { offsetInCU: 0xC441, offset: 0xC441, size: 0x8, addend: 0x0, symName: __ZNSt10unique_ptrI7ManagerSt14default_deleteIS0_EED1Ev, symObjAddr: 0x81C, symBinAddr: 0x100001DC0, symSize: 0x68 }
  - { offsetInCU: 0xC45B, offset: 0xC45B, size: 0x8, addend: 0x0, symName: __ZSt11make_uniqueI7ManagerJS0_EENSt8__detail9_MakeUniqIT_E15__single_objectEDpOT0_, symObjAddr: 0x7CC, symBinAddr: 0x100001D70, symSize: 0x50 }
  - { offsetInCU: 0xC4C9, offset: 0xC4C9, size: 0x8, addend: 0x0, symName: __ZN7ManagerC1EOS_, symObjAddr: 0x6E0, symBinAddr: 0x100001C84, symSize: 0xEC }
  - { offsetInCU: 0xC528, offset: 0xC528, size: 0x8, addend: 0x0, symName: __ZNSt6vectorI9KnownHostSaIS0_EEC1EOS2_, symObjAddr: 0x6B8, symBinAddr: 0x100001C5C, symSize: 0x28 }
  - { offsetInCU: 0xC579, offset: 0xC579, size: 0x8, addend: 0x0, symName: __ZNSt12_Vector_baseI9KnownHostSaIS0_EEC2EOS2_, symObjAddr: 0x690, symBinAddr: 0x100001C34, symSize: 0x28 }
  - { offsetInCU: 0xC5BD, offset: 0xC5BD, size: 0x8, addend: 0x0, symName: __ZNSt6vectorI9KnownHostSaIS0_EED1Ev, symObjAddr: 0x634, symBinAddr: 0x100001BD8, symSize: 0x5C }
  - { offsetInCU: 0xC63D, offset: 0xC63D, size: 0x8, addend: 0x0, symName: __ZNSt12_Vector_baseI9KnownHostSaIS0_EED2Ev, symObjAddr: 0x5D0, symBinAddr: 0x100001B74, symSize: 0x64 }
  - { offsetInCU: 0xC6A6, offset: 0xC6A6, size: 0x8, addend: 0x0, symName: __ZNSt12_Vector_baseI9KnownHostSaIS0_EE12_Vector_implC1Ev, symObjAddr: 0x598, symBinAddr: 0x100001B3C, symSize: 0x38 }
  - { offsetInCU: 0xC6D9, offset: 0xC6D9, size: 0x8, addend: 0x0, symName: __ZNKSt10unique_ptrI4HostSt14default_deleteIS0_EEptEv, symObjAddr: 0x57C, symBinAddr: 0x100001B20, symSize: 0x1C }
  - { offsetInCU: 0xC708, offset: 0xC708, size: 0x8, addend: 0x0, symName: _main, symObjAddr: 0x3E4, symBinAddr: 0x100001988, symSize: 0x198 }
  - { offsetInCU: 0xC753, offset: 0xC753, size: 0x8, addend: 0x0, symName: __ZNSt10unique_ptrI4HostSt14default_deleteIS0_EEaSEOS3_, symObjAddr: 0x3BC, symBinAddr: 0x100001960, symSize: 0x28 }
  - { offsetInCU: 0xC786, offset: 0xC786, size: 0x8, addend: 0x0, symName: __ZNSt15__uniq_ptr_dataI4HostSt14default_deleteIS0_ELb1ELb1EEaSEOS3_, symObjAddr: 0x394, symBinAddr: 0x100001938, symSize: 0x28 }
  - { offsetInCU: 0xC7DB, offset: 0xC7DB, size: 0x8, addend: 0x0, symName: __ZN4HostC1Ev, symObjAddr: 0x2EC, symBinAddr: 0x100001890, symSize: 0xA8 }
  - { offsetInCU: 0xC7F6, offset: 0xC7F6, size: 0x8, addend: 0x0, symName: __ZNSt10unique_ptrI7ManagerSt14default_deleteIS0_EEaSEOS3_, symObjAddr: 0x2C4, symBinAddr: 0x100001868, symSize: 0x28 }
  - { offsetInCU: 0xC829, offset: 0xC829, size: 0x8, addend: 0x0, symName: __ZNSt15__uniq_ptr_dataI7ManagerSt14default_deleteIS0_ELb1ELb1EEaSEOS3_, symObjAddr: 0x29C, symBinAddr: 0x100001840, symSize: 0x28 }
  - { offsetInCU: 0xC88C, offset: 0xC88C, size: 0x8, addend: 0x0, symName: __ZN7ManagerD1Ev, symObjAddr: 0x27C, symBinAddr: 0x100001820, symSize: 0x20 }
  - { offsetInCU: 0xC8CB, offset: 0xC8CB, size: 0x8, addend: 0x0, symName: __ZN7ManagerC1Ev, symObjAddr: 0x1F8, symBinAddr: 0x10000179C, symSize: 0x84 }
  - { offsetInCU: 0xC91C, offset: 0xC91C, size: 0x8, addend: 0x0, symName: __ZNSt6vectorI9KnownHostSaIS0_EEC1Ev, symObjAddr: 0x1D8, symBinAddr: 0x10000177C, symSize: 0x20 }
  - { offsetInCU: 0xC960, offset: 0xC960, size: 0x8, addend: 0x0, symName: __ZNSt12_Vector_baseI9KnownHostSaIS0_EEC2Ev, symObjAddr: 0x1B8, symBinAddr: 0x10000175C, symSize: 0x20 }
  - { offsetInCU: 0xC9B6, offset: 0xC9B6, size: 0x8, addend: 0x0, symName: __ZNSt12_Vector_baseI9KnownHostSaIS0_EE12_Vector_implD1Ev, symObjAddr: 0x18C, symBinAddr: 0x100001730, symSize: 0x2C }
  - { offsetInCU: 0xC9E6, offset: 0xC9E6, size: 0x8, addend: 0x0, symName: __Z12exit_handleriP9__siginfoPv, symObjAddr: 0x130, symBinAddr: 0x1000016D4, symSize: 0x5C }
  - { offsetInCU: 0xCA4F, offset: 0xCA4F, size: 0x8, addend: 0x0, symName: __ZNSt10_Head_baseILm0EP4HostLb0EEC2Ev, symObjAddr: 0x114, symBinAddr: 0x1000016B8, symSize: 0x1C }
  - { offsetInCU: 0xCA9F, offset: 0xCA9F, size: 0x8, addend: 0x0, symName: __ZNSt10_Head_baseILm1ESt14default_deleteI4HostELb1EEC2Ev, symObjAddr: 0x100, symBinAddr: 0x1000016A4, symSize: 0x14 }
  - { offsetInCU: 0xCADB, offset: 0xCADB, size: 0x8, addend: 0x0, symName: __ZNSt11_Tuple_implILm1EJSt14default_deleteI4HostEEEC2Ev, symObjAddr: 0xE0, symBinAddr: 0x100001684, symSize: 0x20 }
  - { offsetInCU: 0xCB1C, offset: 0xCB1C, size: 0x8, addend: 0x0, symName: __ZNSt11_Tuple_implILm0EJP4HostSt14default_deleteIS0_EEEC2Ev, symObjAddr: 0xB8, symBinAddr: 0x10000165C, symSize: 0x28 }
  - { offsetInCU: 0xCB62, offset: 0xCB62, size: 0x8, addend: 0x0, symName: __ZNSt5tupleIJP4HostSt14default_deleteIS0_EEEC1ILb1ELb1EEEv, symObjAddr: 0x98, symBinAddr: 0x10000163C, symSize: 0x20 }
  - { offsetInCU: 0xCB97, offset: 0xCB97, size: 0x8, addend: 0x0, symName: __ZNSt10_Head_baseILm0EP7ManagerLb0EEC2Ev, symObjAddr: 0x7C, symBinAddr: 0x100001620, symSize: 0x1C }
  - { offsetInCU: 0xCBE7, offset: 0xCBE7, size: 0x8, addend: 0x0, symName: __ZNSt10_Head_baseILm1ESt14default_deleteI7ManagerELb1EEC2Ev, symObjAddr: 0x68, symBinAddr: 0x10000160C, symSize: 0x14 }
  - { offsetInCU: 0xCC23, offset: 0xCC23, size: 0x8, addend: 0x0, symName: __ZNSt11_Tuple_implILm1EJSt14default_deleteI7ManagerEEEC2Ev, symObjAddr: 0x48, symBinAddr: 0x1000015EC, symSize: 0x20 }
  - { offsetInCU: 0xCC64, offset: 0xCC64, size: 0x8, addend: 0x0, symName: __ZNSt11_Tuple_implILm0EJP7ManagerSt14default_deleteIS0_EEEC2Ev, symObjAddr: 0x20, symBinAddr: 0x1000015C4, symSize: 0x28 }
  - { offsetInCU: 0xCCAB, offset: 0xCCAB, size: 0x8, addend: 0x0, symName: __ZNSt5tupleIJP7ManagerSt14default_deleteIS0_EEEC1ILb1ELb1EEEv, symObjAddr: 0x0, symBinAddr: 0x1000015A4, symSize: 0x20 }
  - { offsetInCU: 0x6D80, offset: 0x13A16, size: 0x8, addend: 0x0, symName: __ZStL8__ioinit, symObjAddr: 0x2ADE8, symBinAddr: 0x100014001, symSize: 0x0 }
  - { offsetInCU: 0x6E3A, offset: 0x13AD0, size: 0x8, addend: 0x0, symName: __ZL14PORT_DISCOVERY, symObjAddr: 0x1B48, symBinAddr: 0x10000A4D0, symSize: 0x0 }
  - { offsetInCU: 0x6E51, offset: 0x13AE7, size: 0x8, addend: 0x0, symName: __ZL15PORT_MONITORING, symObjAddr: 0x1B4C, symBinAddr: 0x10000A4D4, symSize: 0x0 }
  - { offsetInCU: 0x6E67, offset: 0x13AFD, size: 0x8, addend: 0x0, symName: __ZL15PORT_MANAGEMENT, symObjAddr: 0x1B50, symBinAddr: 0x10000A4D8, symSize: 0x0 }
  - { offsetInCU: 0x6E79, offset: 0x13B0F, size: 0x8, addend: 0x0, symName: __ZL11BUFFER_SIZE, symObjAddr: 0x1B54, symBinAddr: 0x10000A4DC, symSize: 0x0 }
  - { offsetInCU: 0x72E0, offset: 0x13F76, size: 0x8, addend: 0x0, symName: __ZSt7forwardIRKNSt7__cxx1112basic_stringIcSt11char_traitsIcESaIcEEEEOT_RNSt16remove_referenceIS8_E4typeE, symObjAddr: 0x1A80, symBinAddr: 0x100004420, symSize: 0x14 }
  - { offsetInCU: 0x7314, offset: 0x13FAA, size: 0x8, addend: 0x0, symName: __ZNK9__gnu_cxx17__normal_iteratorIPKNSt7__cxx1112basic_stringIcSt11char_traitsIcESaIcEEESt6vectorIS6_SaIS6_EEE4baseEv, symObjAddr: 0x1A6C, symBinAddr: 0x10000440C, symSize: 0x14 }
  - { offsetInCU: 0x733A, offset: 0x13FD0, size: 0x8, addend: 0x0, symName: __ZSt10_ConstructINSt7__cxx1112basic_stringIcSt11char_traitsIcESaIcEEEJRKS5_EEvPT_DpOT0_, symObjAddr: 0x19F0, symBinAddr: 0x100004390, symSize: 0x7C }
  - { offsetInCU: 0x7388, offset: 0x1401E, size: 0x8, addend: 0x0, symName: __ZNK9__gnu_cxx17__normal_iteratorIPKNSt7__cxx1112basic_stringIcSt11char_traitsIcESaIcEEESt6vectorIS6_SaIS6_EEEdeEv, symObjAddr: 0x19D8, symBinAddr: 0x100004378, symSize: 0x18 }
  - { offsetInCU: 0x73B2, offset: 0x14048, size: 0x8, addend: 0x0, symName: __ZN9__gnu_cxx17__normal_iteratorIPKNSt7__cxx1112basic_stringIcSt11char_traitsIcESaIcEEESt6vectorIS6_SaIS6_EEEppEv, symObjAddr: 0x19B0, symBinAddr: 0x100004350, symSize: 0x28 }
  - { offsetInCU: 0x73DE, offset: 0x14074, size: 0x8, addend: 0x0, symName: __ZN9__gnu_cxxneIPKNSt7__cxx1112basic_stringIcSt11char_traitsIcESaIcEEESt6vectorIS6_SaIS6_EEEEbRKNS_17__normal_iteratorIT_T0_EESH_, symObjAddr: 0x196C, symBinAddr: 0x10000430C, symSize: 0x44 }
  - { offsetInCU: 0x742C, offset: 0x140C2, size: 0x8, addend: 0x0, symName: __ZNSt15__new_allocatorINSt7__cxx1112basic_stringIcSt11char_traitsIcESaIcEEEE8allocateEmPKv, symObjAddr: 0x18F4, symBinAddr: 0x100004294, symSize: 0x78 }
  - { offsetInCU: 0x74A1, offset: 0x14137, size: 0x8, addend: 0x0, symName: __ZSt16__do_uninit_copyIN9__gnu_cxx17__normal_iteratorIPKNSt7__cxx1112basic_stringIcSt11char_traitsIcESaIcEEESt6vectorIS7_SaIS7_EEEEPS7_ET0_T_SG_SF_, symObjAddr: 0x184C, symBinAddr: 0x1000041EC, symSize: 0xA8 }
  - { offsetInCU: 0x752B, offset: 0x141C1, size: 0x8, addend: 0x0, symName: __ZSt8_DestroyINSt7__cxx1112basic_stringIcSt11char_traitsIcESaIcEEEEvPT_, symObjAddr: 0x182C, symBinAddr: 0x1000041CC, symSize: 0x20 }
  - { offsetInCU: 0x755B, offset: 0x141F1, size: 0x8, addend: 0x0, symName: __ZSt11__addressofINSt7__cxx1112basic_stringIcSt11char_traitsIcESaIcEEEEPT_RS6_, symObjAddr: 0x1818, symBinAddr: 0x1000041B8, symSize: 0x14 }
  - { offsetInCU: 0x758B, offset: 0x14221, size: 0x8, addend: 0x0, symName: __ZNSt20__uninitialized_copyILb0EE13__uninit_copyIN9__gnu_cxx17__normal_iteratorIPKNSt7__cxx1112basic_stringIcSt11char_traitsIcESaIcEEESt6vectorIS9_SaIS9_EEEEPS9_EET0_T_SI_SH_, symObjAddr: 0x17EC, symBinAddr: 0x10000418C, symSize: 0x2C }
  - { offsetInCU: 0x75E6, offset: 0x1427C, size: 0x8, addend: 0x0, symName: __ZNSt12_Vector_baseINSt7__cxx1112basic_stringIcSt11char_traitsIcESaIcEEESaIS5_EE11_M_allocateEm, symObjAddr: 0x179C, symBinAddr: 0x10000413C, symSize: 0x50 }
  - { offsetInCU: 0x76C8, offset: 0x1435E, size: 0x8, addend: 0x0, symName: __ZNSt12_Vector_baseINSt7__cxx1112basic_stringIcSt11char_traitsIcESaIcEEESaIS5_EE17_Vector_impl_dataC2Ev, symObjAddr: 0x1770, symBinAddr: 0x100004110, symSize: 0x2C }
  - { offsetInCU: 0x7688, offset: 0x1431E, size: 0x8, addend: 0x0, symName: __ZNSt15__new_allocatorINSt7__cxx1112basic_stringIcSt11char_traitsIcESaIcEEEE10deallocateEPS5_m, symObjAddr: 0x173C, symBinAddr: 0x1000040DC, symSize: 0x34 }
  - { offsetInCU: 0x76CC, offset: 0x14362, size: 0x8, addend: 0x0, symName: __ZNSt12_Destroy_auxILb0EE9__destroyIPNSt7__cxx1112basic_stringIcSt11char_traitsIcESaIcEEEEEvT_S9_, symObjAddr: 0x16F0, symBinAddr: 0x100004090, symSize: 0x4C }
  - { offsetInCU: 0x770B, offset: 0x143A1, size: 0x8, addend: 0x0, symName: __ZSt18uninitialized_copyIN9__gnu_cxx17__normal_iteratorIPKNSt7__cxx1112basic_stringIcSt11char_traitsIcESaIcEEESt6vectorIS7_SaIS7_EEEEPS7_ET0_T_SG_SF_, symObjAddr: 0x16BC, symBinAddr: 0x10000405C, symSize: 0x34 }
  - { offsetInCU: 0x781D, offset: 0x144B3, size: 0x8, addend: 0x0, symName: __ZN9__gnu_cxx17__normal_iteratorIPKNSt7__cxx1112basic_stringIcSt11char_traitsIcESaIcEEESt6vectorIS6_SaIS6_EEEC1ERKS8_, symObjAddr: 0x1694, symBinAddr: 0x100004034, symSize: 0x28 }
  - { offsetInCU: 0x77D7, offset: 0x1446D, size: 0x8, addend: 0x0, symName: __ZNSt12_Vector_baseINSt7__cxx1112basic_stringIcSt11char_traitsIcESaIcEEESaIS5_EE17_M_create_storageEm, symObjAddr: 0x1634, symBinAddr: 0x100003FD4, symSize: 0x60 }
  - { offsetInCU: 0x789A, offset: 0x14530, size: 0x8, addend: 0x0, symName: __ZNSt12_Vector_baseINSt7__cxx1112basic_stringIcSt11char_traitsIcESaIcEEESaIS5_EE12_Vector_implC1ERKS6_, symObjAddr: 0x15E8, symBinAddr: 0x100003F88, symSize: 0x4C }
  - { offsetInCU: 0x7915, offset: 0x145AB, size: 0x8, addend: 0x0, symName: __ZSt8_DestroyIPNSt7__cxx1112basic_stringIcSt11char_traitsIcESaIcEEEEvT_S7_, symObjAddr: 0x15C0, symBinAddr: 0x100003F60, symSize: 0x28 }
  - { offsetInCU: 0x7954, offset: 0x145EA, size: 0x8, addend: 0x0, symName: __ZSt22__uninitialized_copy_aIN9__gnu_cxx17__normal_iteratorIPKNSt7__cxx1112basic_stringIcSt11char_traitsIcESaIcEEESt6vectorIS7_SaIS7_EEEEPS7_S7_ET0_T_SG_SF_RSaIT1_E, symObjAddr: 0x1590, symBinAddr: 0x100003F30, symSize: 0x30 }
  - { offsetInCU: 0x79C4, offset: 0x1465A, size: 0x8, addend: 0x0, symName: __ZNKSt6vectorINSt7__cxx1112basic_stringIcSt11char_traitsIcESaIcEEESaIS5_EE3endEv, symObjAddr: 0x1568, symBinAddr: 0x100003F08, symSize: 0x28 }
  - { offsetInCU: 0x79EE, offset: 0x14684, size: 0x8, addend: 0x0, symName: __ZNKSt6vectorINSt7__cxx1112basic_stringIcSt11char_traitsIcESaIcEEESaIS5_EE5beginEv, symObjAddr: 0x1544, symBinAddr: 0x100003EE4, symSize: 0x24 }
  - { offsetInCU: 0x7AA3, offset: 0x14739, size: 0x8, addend: 0x0, symName: __ZNSt12_Vector_baseINSt7__cxx1112basic_stringIcSt11char_traitsIcESaIcEEESaIS5_EEC2EmRKS6_, symObjAddr: 0x14F0, symBinAddr: 0x100003E90, symSize: 0x54 }
  - { offsetInCU: 0x7A96, offset: 0x1472C, size: 0x8, addend: 0x0, symName: __ZNKSt12_Vector_baseINSt7__cxx1112basic_stringIcSt11char_traitsIcESaIcEEESaIS5_EE19_M_get_Tp_allocatorEv, symObjAddr: 0x14DC, symBinAddr: 0x100003E7C, symSize: 0x14 }
  - { offsetInCU: 0x7AC0, offset: 0x14756, size: 0x8, addend: 0x0, symName: __ZNKSt6vectorINSt7__cxx1112basic_stringIcSt11char_traitsIcESaIcEEESaIS5_EE4sizeEv, symObjAddr: 0x14B4, symBinAddr: 0x100003E54, symSize: 0x28 }
  - { offsetInCU: 0x7AEA, offset: 0x14780, size: 0x8, addend: 0x0, symName: __ZNSt12_Vector_baseINSt7__cxx1112basic_stringIcSt11char_traitsIcESaIcEEESaIS5_EE13_M_deallocateEPS5_m, symObjAddr: 0x145C, symBinAddr: 0x100003DFC, symSize: 0x58 }
  - { offsetInCU: 0x7BD6, offset: 0x1486C, size: 0x8, addend: 0x0, symName: __ZNSt15__new_allocatorINSt7__cxx1112basic_stringIcSt11char_traitsIcESaIcEEEED2Ev, symObjAddr: 0x1448, symBinAddr: 0x100003DE8, symSize: 0x14 }
  - { offsetInCU: 0x7C0A, offset: 0x148A0, size: 0x8, addend: 0x0, symName: __ZNSt12_Vector_baseINSt7__cxx1112basic_stringIcSt11char_traitsIcESaIcEEESaIS5_EE19_M_get_Tp_allocatorEv, symObjAddr: 0x1434, symBinAddr: 0x100003DD4, symSize: 0x14 }
  - { offsetInCU: 0x7C70, offset: 0x14906, size: 0x8, addend: 0x0, symName: __ZNSt15__new_allocatorIcED2Ev, symObjAddr: 0x1420, symBinAddr: 0x100003DC0, symSize: 0x14 }
  - { offsetInCU: 0x7C91, offset: 0x14927, size: 0x8, addend: 0x0, symName: __ZSt4moveIRZNSt7__cxx119to_stringEiEUlPcmE_EONSt16remove_referenceIT_E4typeEOS5_, symObjAddr: 0x140C, symBinAddr: 0x100003DAC, symSize: 0x14 }
  - { offsetInCU: 0x7CC1, offset: 0x14957, size: 0x8, addend: 0x0, symName: __ZSteqIcSt11char_traitsIcESaIcEEbRKNSt7__cxx1112basic_stringIT_T0_T1_EEPKS5_, symObjAddr: 0x1398, symBinAddr: 0x100003D38, symSize: 0x74 }
  - { offsetInCU: 0x7D8D, offset: 0x14A23, size: 0x8, addend: 0x0, symName: __ZNSt6vectorINSt7__cxx1112basic_stringIcSt11char_traitsIcESaIcEEESaIS5_EEC1ERKS7_, symObjAddr: 0x1284, symBinAddr: 0x100003C24, symSize: 0x114 }
  - { offsetInCU: 0x7EBC, offset: 0x14B52, size: 0x8, addend: 0x0, symName: __ZNSt12_Vector_baseINSt7__cxx1112basic_stringIcSt11char_traitsIcESaIcEEESaIS5_EED2Ev, symObjAddr: 0x1234, symBinAddr: 0x100003BD4, symSize: 0x50 }
  - { offsetInCU: 0x7F19, offset: 0x14BAF, size: 0x8, addend: 0x0, symName: __ZNSt6vectorINSt7__cxx1112basic_stringIcSt11char_traitsIcESaIcEEESaIS5_EED1Ev, symObjAddr: 0x11D8, symBinAddr: 0x100003B78, symSize: 0x5C }
  - { offsetInCU: 0x7F59, offset: 0x14BEF, size: 0x8, addend: 0x0, symName: __ZNSt7__cxx1112basic_stringIcSt11char_traitsIcESaIcEE22__resize_and_overwriteIZNS_9to_stringEiEUlPcmE_EEvmT_, symObjAddr: 0x1148, symBinAddr: 0x100003AE8, symSize: 0x90 }
  - { offsetInCU: 0x80CB, offset: 0x14D61, size: 0x8, addend: 0x0, symName: __ZZNSt7__cxx1112basic_stringIcSt11char_traitsIcESaIcEE22__resize_and_overwriteIZNS_9to_stringEiEUlPcmE_EEvmT_EN11_TerminatorD1Ev, symObjAddr: 0x1114, symBinAddr: 0x100003AB4, symSize: 0x34 }
  - { offsetInCU: 0x8091, offset: 0x14D27, size: 0x8, addend: 0x0, symName: __ZNSt8__detail18__to_chars_10_implIjEEvPcjT_, symObjAddr: 0xF60, symBinAddr: 0x100003900, symSize: 0x1B4 }
  - { offsetInCU: 0x8177, offset: 0x14E0D, size: 0x8, addend: 0x0, symName: __Z11destroy_winP7_win_st, symObjAddr: 0xF04, symBinAddr: 0x1000038A4, symSize: 0x5C }
  - { offsetInCU: 0x81A9, offset: 0x14E3F, size: 0x8, addend: 0x0, symName: __Z13create_newwiniiii, symObjAddr: 0xEB0, symBinAddr: 0x100003850, symSize: 0x54 }
  - { offsetInCU: 0x8224, offset: 0x14EBA, size: 0x8, addend: 0x0, symName: __Z17string_from_stateB5cxx11i, symObjAddr: 0xD28, symBinAddr: 0x1000036C8, symSize: 0x188 }
  - { offsetInCU: 0x848C, offset: 0x15122, size: 0x8, addend: 0x0, symName: __Z17state_from_stringNSt7__cxx1112basic_stringIcSt11char_traitsIcESaIcEEE, symObjAddr: 0xCC8, symBinAddr: 0x100003668, symSize: 0x60 }
  - { offsetInCU: 0x8467, offset: 0x150FD, size: 0x8, addend: 0x0, symName: __ZN4Host5inputEPv, symObjAddr: 0xC0C, symBinAddr: 0x1000035AC, symSize: 0xBC }
  - { offsetInCU: 0x8520, offset: 0x151B6, size: 0x8, addend: 0x0, symName: __ZN4Host9interfaceEPv, symObjAddr: 0xB14, symBinAddr: 0x1000034B4, symSize: 0xF8 }
  - { offsetInCU: 0x85AA, offset: 0x15240, size: 0x8, addend: 0x0, symName: __ZN4Host10monitoringEPv, symObjAddr: 0x714, symBinAddr: 0x1000030B4, symSize: 0x400 }
  - { offsetInCU: 0x8772, offset: 0x15408, size: 0x8, addend: 0x0, symName: __ZN4Host9discoveryEPv, symObjAddr: 0x55C, symBinAddr: 0x100002EFC, symSize: 0x1B8 }
  - { offsetInCU: 0x889B, offset: 0x15531, size: 0x8, addend: 0x0, symName: __ZN6PacketC1ERKS_, symObjAddr: 0x48C, symBinAddr: 0x100002E2C, symSize: 0xD0 }
  - { offsetInCU: 0x893C, offset: 0x155D2, size: 0x8, addend: 0x0, symName: __ZNSt12_Vector_baseINSt7__cxx1112basic_stringIcSt11char_traitsIcESaIcEEESaIS5_EE12_Vector_implD1Ev, symObjAddr: 0x460, symBinAddr: 0x100002E00, symSize: 0x2C }
  - { offsetInCU: 0x8952, offset: 0x155E8, size: 0x8, addend: 0x0, symName: __ZN6PacketD1Ev, symObjAddr: 0x428, symBinAddr: 0x100002DC8, symSize: 0x38 }
  - { offsetInCU: 0x896F, offset: 0x15605, size: 0x8, addend: 0x0, symName: __ZN4Host12exit_handlerEiP9__siginfoPv, symObjAddr: 0x3EC, symBinAddr: 0x100002D8C, symSize: 0x3C }
  - { offsetInCU: 0x89C9, offset: 0x1565F, size: 0x8, addend: 0x0, symName: __ZN4Host12switch_stateE9HostState, symObjAddr: 0x38C, symBinAddr: 0x100002D2C, symSize: 0x60 }
  - { offsetInCU: 0x8A05, offset: 0x1569B, size: 0x8, addend: 0x0, symName: __ZN4Host4initEv, symObjAddr: 0x270, symBinAddr: 0x100002C10, symSize: 0x11C }
  - { offsetInCU: 0x8A2A, offset: 0x156C0, size: 0x8, addend: 0x0, symName: __ZNSt8__detail14__to_chars_lenIjEEjT_i, symObjAddr: 0x198, symBinAddr: 0x100002B38, symSize: 0xD8 }
  - { offsetInCU: 0x8AA5, offset: 0x1573B, size: 0x8, addend: 0x0, symName: __ZNSt7__cxx119to_stringEi, symObjAddr: 0xEC, symBinAddr: 0x100002A8C, symSize: 0xAC }
  - { offsetInCU: 0x8BAC, offset: 0x15842, size: 0x8, addend: 0x0, symName: __ZZNSt7__cxx119to_stringEiENKUlPcmE_clES0_m, symObjAddr: 0x90, symBinAddr: 0x100002A30, symSize: 0x5C }
  - { offsetInCU: 0x8C28, offset: 0x158BE, size: 0x8, addend: 0x0, symName: __ZNSt11char_traitsIcE6lengthEPKc, symObjAddr: 0x74, symBinAddr: 0x100002A14, symSize: 0x1C }
  - { offsetInCU: 0x8C50, offset: 0x158E6, size: 0x8, addend: 0x0, symName: __ZNSt11char_traitsIcE7compareEPKcS2_m, symObjAddr: 0x30, symBinAddr: 0x1000029D0, symSize: 0x44 }
  - { offsetInCU: 0x8CA5, offset: 0x1593B, size: 0x8, addend: 0x0, symName: __ZdlPvS_, symObjAddr: 0x18, symBinAddr: 0x1000029B8, symSize: 0x18 }
  - { offsetInCU: 0x8CDA, offset: 0x15970, size: 0x8, addend: 0x0, symName: __ZnwmPv, symObjAddr: 0x0, symBinAddr: 0x1000029A0, symSize: 0x18 }
  - { offsetInCU: 0x8395, offset: 0x1DD2D, size: 0x8, addend: 0x0, symName: __ZStL8__ioinit, symObjAddr: 0x38EA8, symBinAddr: 0x100014002, symSize: 0x0 }
  - { offsetInCU: 0x83BB, offset: 0x1DD53, size: 0x8, addend: 0x0, symName: __ZL14PORT_DISCOVERY, symObjAddr: 0x3028, symBinAddr: 0x10000A598, symSize: 0x0 }
  - { offsetInCU: 0x83D2, offset: 0x1DD6A, size: 0x8, addend: 0x0, symName: __ZL15PORT_MONITORING, symObjAddr: 0x302C, symBinAddr: 0x10000A59C, symSize: 0x0 }
  - { offsetInCU: 0x83E8, offset: 0x1DD80, size: 0x8, addend: 0x0, symName: __ZL15PORT_MANAGEMENT, symObjAddr: 0x3030, symBinAddr: 0x10000A5A0, symSize: 0x0 }
  - { offsetInCU: 0x83FA, offset: 0x1DD92, size: 0x8, addend: 0x0, symName: __ZL11BUFFER_SIZE, symObjAddr: 0x3034, symBinAddr: 0x10000A5A4, symSize: 0x0 }
  - { offsetInCU: 0x8ADC, offset: 0x1E474, size: 0x8, addend: 0x0, symName: __ZNKSt13move_iteratorIP9KnownHostE4baseEv, symObjAddr: 0x2F60, symBinAddr: 0x1000068E8, symSize: 0x18 }
  - { offsetInCU: 0x8B08, offset: 0x1E4A0, size: 0x8, addend: 0x0, symName: __ZSteqIP9KnownHostEbRKSt13move_iteratorIT_ES6_, symObjAddr: 0x2F20, symBinAddr: 0x1000068A8, symSize: 0x40 }
  - { offsetInCU: 0x8B90, offset: 0x1E528, size: 0x8, addend: 0x0, symName: __ZSt7forwardI9KnownHostEOT_RNSt16remove_referenceIS1_E4typeE, symObjAddr: 0x2F0C, symBinAddr: 0x100006894, symSize: 0x14 }
  - { offsetInCU: 0x8BC0, offset: 0x1E558, size: 0x8, addend: 0x0, symName: __ZSt10_ConstructI9KnownHostJS0_EEvPT_DpOT0_, symObjAddr: 0x2EC0, symBinAddr: 0x100006848, symSize: 0x4C }
  - { offsetInCU: 0x8C3E, offset: 0x1E5D6, size: 0x8, addend: 0x0, symName: __ZN9KnownHostC1EOS_, symObjAddr: 0x2E30, symBinAddr: 0x1000067B8, symSize: 0x90 }
  - { offsetInCU: 0x8C5A, offset: 0x1E5F2, size: 0x8, addend: 0x0, symName: __ZNKSt13move_iteratorIP9KnownHostEdeEv, symObjAddr: 0x2E18, symBinAddr: 0x1000067A0, symSize: 0x18 }
  - { offsetInCU: 0x8C84, offset: 0x1E61C, size: 0x8, addend: 0x0, symName: __ZNSt13move_iteratorIP9KnownHostEppEv, symObjAddr: 0x2DF0, symBinAddr: 0x100006778, symSize: 0x28 }
  - { offsetInCU: 0x8CAA, offset: 0x1E642, size: 0x8, addend: 0x0, symName: __ZStneIP9KnownHostEbRKSt13move_iteratorIT_ES6_, symObjAddr: 0x2DC4, symBinAddr: 0x10000674C, symSize: 0x2C }
  - { offsetInCU: 0x8D35, offset: 0x1E6CD, size: 0x8, addend: 0x0, symName: __ZSt4moveIR9KnownHostEONSt16remove_referenceIT_E4typeEOS3_, symObjAddr: 0x2DB0, symBinAddr: 0x100006738, symSize: 0x14 }
  - { offsetInCU: 0x8D65, offset: 0x1E6FD, size: 0x8, addend: 0x0, symName: __ZNSt11__copy_moveILb1ELb0ESt26random_access_iterator_tagE8__copy_mIP9KnownHostS4_EET0_T_S6_S5_, symObjAddr: 0x2D20, symBinAddr: 0x1000066A8, symSize: 0x90 }
  - { offsetInCU: 0x8DF7, offset: 0x1E78F, size: 0x8, addend: 0x0, symName: __ZN9KnownHostaSEOS_, symObjAddr: 0x2C90, symBinAddr: 0x100006618, symSize: 0x90 }
  - { offsetInCU: 0x8E26, offset: 0x1E7BE, size: 0x8, addend: 0x0, symName: __ZSt16__do_uninit_copyISt13move_iteratorIP9KnownHostES2_ET0_T_S5_S4_, symObjAddr: 0x2BC0, symBinAddr: 0x100006570, symSize: 0xA8 }
  - { offsetInCU: 0x8E8C, offset: 0x1E824, size: 0x8, addend: 0x0, symName: __ZSt19__relocate_object_aI9KnownHostS0_SaIS0_EEvPT_PT0_RT1_, symObjAddr: 0x2AF0, symBinAddr: 0x1000064A0, symSize: 0xD0 }
  - { offsetInCU: 0x8FC5, offset: 0x1E95D, size: 0x8, addend: 0x0, symName: __ZSt14__copy_move_a2ILb1EP9KnownHostS1_ET1_T0_S3_S2_, symObjAddr: 0x2AC4, symBinAddr: 0x100006474, symSize: 0x2C }
  - { offsetInCU: 0x9029, offset: 0x1E9C1, size: 0x8, addend: 0x0, symName: __ZNSt20__uninitialized_copyILb0EE13__uninit_copyISt13move_iteratorIP9KnownHostES4_EET0_T_S7_S6_, symObjAddr: 0x2920, symBinAddr: 0x100006448, symSize: 0x2C }
  - { offsetInCU: 0x908C, offset: 0x1EA24, size: 0x8, addend: 0x0, symName: __ZSt4moveIRP9KnownHostEONSt16remove_referenceIT_E4typeEOS4_, symObjAddr: 0x290C, symBinAddr: 0x100006434, symSize: 0x14 }
  - { offsetInCU: 0x90BC, offset: 0x1EA54, size: 0x8, addend: 0x0, symName: __ZSt14__relocate_a_1IP9KnownHostS1_SaIS0_EET0_T_S4_S3_RT1_, symObjAddr: 0x2854, symBinAddr: 0x1000063B0, symSize: 0x84 }
  - { offsetInCU: 0x9140, offset: 0x1EAD8, size: 0x8, addend: 0x0, symName: __ZSt12__niter_baseIP9KnownHostET_S2_, symObjAddr: 0x2840, symBinAddr: 0x10000639C, symSize: 0x14 }
  - { offsetInCU: 0x9187, offset: 0x1EB1F, size: 0x8, addend: 0x0, symName: __ZSt12__niter_wrapIN9__gnu_cxx17__normal_iteratorIP9KnownHostSt6vectorIS2_SaIS2_EEEES3_ET_S8_T0_, symObjAddr: 0x27E4, symBinAddr: 0x100006340, symSize: 0x5C }
  - { offsetInCU: 0x91D1, offset: 0x1EB69, size: 0x8, addend: 0x0, symName: __ZSt14__copy_move_a1ILb1EP9KnownHostS1_ET1_T0_S3_S2_, symObjAddr: 0x27B8, symBinAddr: 0x100006314, symSize: 0x2C }
  - { offsetInCU: 0x9235, offset: 0x1EBCD, size: 0x8, addend: 0x0, symName: __ZSt12__niter_baseIP9KnownHostSt6vectorIS0_SaIS0_EEET_N9__gnu_cxx17__normal_iteratorIS5_T0_EE, symObjAddr: 0x2798, symBinAddr: 0x1000062F4, symSize: 0x20 }
  - { offsetInCU: 0x926F, offset: 0x1EC07, size: 0x8, addend: 0x0, symName: __ZSt18uninitialized_copyISt13move_iteratorIP9KnownHostES2_ET0_T_S5_S4_, symObjAddr: 0x2688, symBinAddr: 0x1000062C0, symSize: 0x34 }
  - { offsetInCU: 0x9333, offset: 0x1ECCB, size: 0x8, addend: 0x0, symName: __ZNSt13move_iteratorIP9KnownHostEC1ES1_, symObjAddr: 0x2658, symBinAddr: 0x100006290, symSize: 0x30 }
  - { offsetInCU: 0x9337, offset: 0x1ECCF, size: 0x8, addend: 0x0, symName: __ZSt12__relocate_aIP9KnownHostS1_SaIS0_EET0_T_S4_S3_RT1_, symObjAddr: 0x25B0, symBinAddr: 0x100006234, symSize: 0x5C }
  - { offsetInCU: 0x93AE, offset: 0x1ED46, size: 0x8, addend: 0x0, symName: __ZNSt15__new_allocatorI9KnownHostE8allocateEmPKv, symObjAddr: 0x251C, symBinAddr: 0x1000061A0, symSize: 0x94 }
  - { offsetInCU: 0x9427, offset: 0x1EDBF, size: 0x8, addend: 0x0, symName: __ZNKSt12_Vector_baseI9KnownHostSaIS0_EE19_M_get_Tp_allocatorEv, symObjAddr: 0x2508, symBinAddr: 0x10000618C, symSize: 0x14 }
  - { offsetInCU: 0x944D, offset: 0x1EDE5, size: 0x8, addend: 0x0, symName: __ZNSt6vectorI9KnownHostSaIS0_EE11_S_max_sizeERKS1_, symObjAddr: 0x24A4, symBinAddr: 0x100006128, symSize: 0x64 }
  - { offsetInCU: 0x952A, offset: 0x1EEC2, size: 0x8, addend: 0x0, symName: __ZSt13__copy_move_aILb1EN9__gnu_cxx17__normal_iteratorIP9KnownHostSt6vectorIS2_SaIS2_EEEES7_ET1_T0_S9_S8_, symObjAddr: 0x2444, symBinAddr: 0x1000060C8, symSize: 0x60 }
  - { offsetInCU: 0x958E, offset: 0x1EF26, size: 0x8, addend: 0x0, symName: __ZSt12__miter_baseIN9__gnu_cxx17__normal_iteratorIP9KnownHostSt6vectorIS2_SaIS2_EEEEET_S8_, symObjAddr: 0x2430, symBinAddr: 0x1000060B4, symSize: 0x14 }
  - { offsetInCU: 0x95BF, offset: 0x1EF57, size: 0x8, addend: 0x0, symName: __ZSt22__uninitialized_copy_aISt13move_iteratorIP9KnownHostES2_S1_ET0_T_S5_S4_RSaIT1_E, symObjAddr: 0x22D8, symBinAddr: 0x100006084, symSize: 0x30 }
  - { offsetInCU: 0x962B, offset: 0x1EFC3, size: 0x8, addend: 0x0, symName: __ZSt32__make_move_if_noexcept_iteratorI9KnownHostSt13move_iteratorIPS0_EET0_PT_, symObjAddr: 0x22B4, symBinAddr: 0x100006060, symSize: 0x24 }
  - { offsetInCU: 0x9665, offset: 0x1EFFD, size: 0x8, addend: 0x0, symName: __ZNSt6vectorI9KnownHostSaIS0_EE14_S_do_relocateEPS0_S3_S3_RS1_St17integral_constantIbLb1EE, symObjAddr: 0x2254, symBinAddr: 0x100006028, symSize: 0x38 }
  - { offsetInCU: 0x96EE, offset: 0x1F086, size: 0x8, addend: 0x0, symName: __ZNKSt6vectorI9KnownHostSaIS0_EE4sizeEv, symObjAddr: 0x21D8, symBinAddr: 0x100005FEC, symSize: 0x3C }
  - { offsetInCU: 0x9718, offset: 0x1F0B0, size: 0x8, addend: 0x0, symName: __ZNKSt6vectorI9KnownHostSaIS0_EE8max_sizeEv, symObjAddr: 0x21B8, symBinAddr: 0x100005FCC, symSize: 0x20 }
  - { offsetInCU: 0x976B, offset: 0x1F103, size: 0x8, addend: 0x0, symName: __ZSt4moveIN9__gnu_cxx17__normal_iteratorIP9KnownHostSt6vectorIS2_SaIS2_EEEES7_ET0_T_S9_S8_, symObjAddr: 0x2170, symBinAddr: 0x100005F84, symSize: 0x48 }
  - { offsetInCU: 0x97C9, offset: 0x1F161, size: 0x8, addend: 0x0, symName: __ZNK9__gnu_cxx17__normal_iteratorIPK9KnownHostSt6vectorIS1_SaIS1_EEE4baseEv, symObjAddr: 0x215C, symBinAddr: 0x100005F70, symSize: 0x14 }
  - { offsetInCU: 0x9862, offset: 0x1F1FA, size: 0x8, addend: 0x0, symName: __ZN9__gnu_cxx17__normal_iteratorIPK9KnownHostSt6vectorIS1_SaIS1_EEEC1ERKS3_, symObjAddr: 0x2134, symBinAddr: 0x100005F48, symSize: 0x28 }
  - { offsetInCU: 0x9842, offset: 0x1F1DA, size: 0x8, addend: 0x0, symName: __ZSt34__uninitialized_move_if_noexcept_aIP9KnownHostS1_SaIS0_EET0_T_S4_S3_RT1_, symObjAddr: 0x1FB4, symBinAddr: 0x100005EF8, symSize: 0x50 }
  - { offsetInCU: 0x98F0, offset: 0x1F288, size: 0x8, addend: 0x0, symName: __ZNSt6vectorI9KnownHostSaIS0_EE11_S_relocateEPS0_S3_S3_RS1_, symObjAddr: 0x1F6C, symBinAddr: 0x100005EC4, symSize: 0x34 }
  - { offsetInCU: 0x9948, offset: 0x1F2E0, size: 0x8, addend: 0x0, symName: __ZSt12__to_addressI9KnownHostEPT_S2_, symObjAddr: 0x1F58, symBinAddr: 0x100005EB0, symSize: 0x14 }
  - { offsetInCU: 0x99AE, offset: 0x1F346, size: 0x8, addend: 0x0, symName: __ZNSt12_Vector_baseI9KnownHostSaIS0_EE11_M_allocateEm, symObjAddr: 0x1F08, symBinAddr: 0x100005E60, symSize: 0x50 }
  - { offsetInCU: 0x9A15, offset: 0x1F3AD, size: 0x8, addend: 0x0, symName: __ZN9__gnu_cxxmiIP9KnownHostSt6vectorIS1_SaIS1_EEEENS_17__normal_iteratorIT_T0_E15difference_typeERKS9_SC_, symObjAddr: 0x1EB4, symBinAddr: 0x100005E0C, symSize: 0x54 }
  - { offsetInCU: 0x9A63, offset: 0x1F3FB, size: 0x8, addend: 0x0, symName: __ZNKSt6vectorI9KnownHostSaIS0_EE12_M_check_lenEmPKc, symObjAddr: 0x1DE4, symBinAddr: 0x100005D3C, symSize: 0xD0 }
  - { offsetInCU: 0x9B01, offset: 0x1F499, size: 0x8, addend: 0x0, symName: __ZSt7forwardIRK9KnownHostEOT_RNSt16remove_referenceIS3_E4typeE, symObjAddr: 0x1DD0, symBinAddr: 0x100005D28, symSize: 0x14 }
  - { offsetInCU: 0x9B35, offset: 0x1F4CD, size: 0x8, addend: 0x0, symName: __ZNSt6vectorI9KnownHostSaIS0_EE8_M_eraseEN9__gnu_cxx17__normal_iteratorIPS0_S2_EE, symObjAddr: 0x1D08, symBinAddr: 0x100005C60, symSize: 0xC8 }
  - { offsetInCU: 0x9BC3, offset: 0x1F55B, size: 0x8, addend: 0x0, symName: __ZNK9__gnu_cxx17__normal_iteratorIP9KnownHostSt6vectorIS1_SaIS1_EEEplEl, symObjAddr: 0x1CBC, symBinAddr: 0x100005C14, symSize: 0x4C }
  - { offsetInCU: 0x9BFF, offset: 0x1F597, size: 0x8, addend: 0x0, symName: __ZN9__gnu_cxxmiIPK9KnownHostSt6vectorIS1_SaIS1_EEEENS_17__normal_iteratorIT_T0_E15difference_typeERKSA_SD_, symObjAddr: 0x1C68, symBinAddr: 0x100005BC0, symSize: 0x54 }
  - { offsetInCU: 0x9C4D, offset: 0x1F5E5, size: 0x8, addend: 0x0, symName: __ZNKSt6vectorI9KnownHostSaIS0_EE6cbeginEv, symObjAddr: 0x1C44, symBinAddr: 0x100005B9C, symSize: 0x24 }
  - { offsetInCU: 0x9C77, offset: 0x1F60F, size: 0x8, addend: 0x0, symName: __ZNK9__gnu_cxx17__normal_iteratorIP9KnownHostSt6vectorIS1_SaIS1_EEE4baseEv, symObjAddr: 0x1AA4, symBinAddr: 0x100005B88, symSize: 0x14 }
  - { offsetInCU: 0x9D0F, offset: 0x1F6A7, size: 0x8, addend: 0x0, symName: __ZN9__gnu_cxx17__normal_iteratorIP9KnownHostSt6vectorIS1_SaIS1_EEEC1ERKS2_, symObjAddr: 0x1A7C, symBinAddr: 0x100005B60, symSize: 0x28 }
  - { offsetInCU: 0x9CF4, offset: 0x1F68C, size: 0x8, addend: 0x0, symName: __ZNSt6vectorI9KnownHostSaIS0_EE17_M_realloc_appendIJRKS0_EEEvDpOT_, symObjAddr: 0x17B4, symBinAddr: 0x100005898, symSize: 0x2C8 }
  - { offsetInCU: 0x9ECA, offset: 0x1F862, size: 0x8, addend: 0x0, symName: __ZZNSt6vectorI9KnownHostSaIS0_EE17_M_realloc_appendIJRKS0_EEEvDpOT_EN6_GuardC1EPS0_mRS1_, symObjAddr: 0x1658, symBinAddr: 0x10000573C, symSize: 0x44 }
  - { offsetInCU: 0x9F03, offset: 0x1F89B, size: 0x8, addend: 0x0, symName: __ZZNSt6vectorI9KnownHostSaIS0_EE17_M_realloc_appendIJRKS0_EEEvDpOT_EN6_GuardD1Ev, symObjAddr: 0x169C, symBinAddr: 0x100005780, symSize: 0x60 }
  - { offsetInCU: 0xA0C2, offset: 0x1FA5A, size: 0x8, addend: 0x0, symName: __ZZNSt6vectorI9KnownHostSaIS0_EE17_M_realloc_appendIJRKS0_EEEvDpOT_EN11_Guard_eltsC1EPS0_RS1_, symObjAddr: 0x1724, symBinAddr: 0x100005808, symSize: 0x44 }
  - { offsetInCU: 0xA0F4, offset: 0x1FA8C, size: 0x8, addend: 0x0, symName: __ZZNSt6vectorI9KnownHostSaIS0_EE17_M_realloc_appendIJRKS0_EEEvDpOT_EN11_Guard_eltsD1Ev, symObjAddr: 0x1768, symBinAddr: 0x10000584C, symSize: 0x4C }
  - { offsetInCU: 0xA0F5, offset: 0x1FA8D, size: 0x8, addend: 0x0, symName: __ZNSt6vectorI9KnownHostSaIS0_EE19_S_nothrow_relocateESt17integral_constantIbLb1EE, symObjAddr: 0x1710, symBinAddr: 0x1000057F4, symSize: 0x14 }
  - { offsetInCU: 0xA117, offset: 0x1FAAF, size: 0x8, addend: 0x0, symName: __ZNSt6vectorI9KnownHostSaIS0_EE15_S_use_relocateEv, symObjAddr: 0x16FC, symBinAddr: 0x1000057E0, symSize: 0x14 }
  - { offsetInCU: 0xA176, offset: 0x1FB0E, size: 0x8, addend: 0x0, symName: __ZNSt6vectorI9KnownHostSaIS0_EE5eraseEN9__gnu_cxx17__normal_iteratorIPKS0_S2_EE, symObjAddr: 0x1604, symBinAddr: 0x1000056E8, symSize: 0x54 }
  - { offsetInCU: 0xA238, offset: 0x1FBD0, size: 0x8, addend: 0x0, symName: __ZN9__gnu_cxx17__normal_iteratorIPK9KnownHostSt6vectorIS1_SaIS1_EEEC1IPS1_vEERKNS0_IT_S6_EE, symObjAddr: 0x15D4, symBinAddr: 0x1000056B8, symSize: 0x30 }
  - { offsetInCU: 0xA211, offset: 0x1FBA9, size: 0x8, addend: 0x0, symName: __ZSt7setfillIcESt8_SetfillIT_ES1_, symObjAddr: 0x1400, symBinAddr: 0x1000056A4, symSize: 0x14 }
  - { offsetInCU: 0xA241, offset: 0x1FBD9, size: 0x8, addend: 0x0, symName: __ZSteqIcSt11char_traitsIcESaIcEEbRKNSt7__cxx1112basic_stringIT_T0_T1_EESA_, symObjAddr: 0x1380, symBinAddr: 0x100005624, symSize: 0x80 }
  - { offsetInCU: 0xA298, offset: 0x1FC30, size: 0x8, addend: 0x0, symName: __ZNK9__gnu_cxx17__normal_iteratorIP9KnownHostSt6vectorIS1_SaIS1_EEEdeEv, symObjAddr: 0x1368, symBinAddr: 0x10000560C, symSize: 0x18 }
  - { offsetInCU: 0xA2C2, offset: 0x1FC5A, size: 0x8, addend: 0x0, symName: __ZN9__gnu_cxx17__normal_iteratorIP9KnownHostSt6vectorIS1_SaIS1_EEEppEv, symObjAddr: 0x1340, symBinAddr: 0x1000055E4, symSize: 0x28 }
  - { offsetInCU: 0xA2E8, offset: 0x1FC80, size: 0x8, addend: 0x0, symName: __ZN9__gnu_cxxneIP9KnownHostSt6vectorIS1_SaIS1_EEEEbRKNS_17__normal_iteratorIT_T0_EESB_, symObjAddr: 0x12FC, symBinAddr: 0x1000055A0, symSize: 0x44 }
  - { offsetInCU: 0xA336, offset: 0x1FCCE, size: 0x8, addend: 0x0, symName: __ZNSt6vectorI9KnownHostSaIS0_EE3endEv, symObjAddr: 0x12D4, symBinAddr: 0x100005578, symSize: 0x28 }
  - { offsetInCU: 0xA360, offset: 0x1FCF8, size: 0x8, addend: 0x0, symName: __ZNSt6vectorI9KnownHostSaIS0_EE5beginEv, symObjAddr: 0x12B0, symBinAddr: 0x100005554, symSize: 0x24 }
  - { offsetInCU: 0xA38A, offset: 0x1FD22, size: 0x8, addend: 0x0, symName: __ZNSt6vectorI9KnownHostSaIS0_EE9push_backERKS0_, symObjAddr: 0x11B4, symBinAddr: 0x100005458, symSize: 0xFC }
  - { offsetInCU: 0xA41E, offset: 0x1FDB6, size: 0x8, addend: 0x0, symName: __ZSt3maxImERKT_S2_S2_, symObjAddr: 0x117C, symBinAddr: 0x100005420, symSize: 0x38 }
  - { offsetInCU: 0xA466, offset: 0x1FDFE, size: 0x8, addend: 0x0, symName: __ZN7Manager9interfaceEPv, symObjAddr: 0x1168, symBinAddr: 0x10000540C, symSize: 0x14 }
  - { offsetInCU: 0xA495, offset: 0x1FE2D, size: 0x8, addend: 0x0, symName: __ZN7Manager10managementEPv, symObjAddr: 0xFF0, symBinAddr: 0x100005294, symSize: 0x178 }
  - { offsetInCU: 0xA532, offset: 0x1FECA, size: 0x8, addend: 0x0, symName: __ZN7Manager10monitoringEPv, symObjAddr: 0xC60, symBinAddr: 0x100004F04, symSize: 0x390 }
  - { offsetInCU: 0xA61D, offset: 0x1FFB5, size: 0x8, addend: 0x0, symName: __ZN7Manager9discoveryEPv, symObjAddr: 0x944, symBinAddr: 0x100004CB8, symSize: 0x24C }
  - { offsetInCU: 0xA6A3, offset: 0x2003B, size: 0x8, addend: 0x0, symName: __ZN7Manager11print_hostsEv, symObjAddr: 0x56C, symBinAddr: 0x100004944, symSize: 0x374 }
  - { offsetInCU: 0xA70E, offset: 0x200A6, size: 0x8, addend: 0x0, symName: __ZN7Manager8has_hostENSt7__cxx1112basic_stringIcSt11char_traitsIcESaIcEEE, symObjAddr: 0x4AC, symBinAddr: 0x100004884, symSize: 0xC0 }
  - { offsetInCU: 0xA7C5, offset: 0x2015D, size: 0x8, addend: 0x0, symName: __ZN9KnownHostC1ERKS_, symObjAddr: 0x3B4, symBinAddr: 0x1000047C4, symSize: 0xC0 }
  - { offsetInCU: 0xA7E3, offset: 0x2017B, size: 0x8, addend: 0x0, symName: __ZN7Manager8add_hostE9KnownHost, symObjAddr: 0x310, symBinAddr: 0x100004720, symSize: 0xA4 }
  - { offsetInCU: 0xA820, offset: 0x201B8, size: 0x8, addend: 0x0, symName: __ZN7Manager4initEv, symObjAddr: 0x238, symBinAddr: 0x100004648, symSize: 0xD8 }
  - { offsetInCU: 0xA84A, offset: 0x201E2, size: 0x8, addend: 0x0, symName: __ZNK6Packet8get_typeEv, symObjAddr: 0x220, symBinAddr: 0x100004630, symSize: 0x18 }
  - { offsetInCU: 0xA870, offset: 0x20208, size: 0x8, addend: 0x0, symName: __ZSt3minImERKT_S2_S2_, symObjAddr: 0x1E8, symBinAddr: 0x1000045F8, symSize: 0x38 }
  - { offsetInCU: 0xA8AF, offset: 0x20247, size: 0x8, addend: 0x0, symName: __ZSt4setwi, symObjAddr: 0x1D4, symBinAddr: 0x1000045E4, symSize: 0x14 }
  - { offsetInCU: 0xA8D6, offset: 0x2026E, size: 0x8, addend: 0x0, symName: __ZSt4leftRSt8ios_base, symObjAddr: 0x1AC, symBinAddr: 0x1000045BC, symSize: 0x28 }
  - { offsetInCU: 0xA90D, offset: 0x202A5, size: 0x8, addend: 0x0, symName: __ZNSt8ios_base4setfESt13_Ios_FmtflagsS0_, symObjAddr: 0x13C, symBinAddr: 0x10000454C, symSize: 0x70 }
  - { offsetInCU: 0xA970, offset: 0x20308, size: 0x8, addend: 0x0, symName: __ZStaNRSt13_Ios_FmtflagsS_, symObjAddr: 0x104, symBinAddr: 0x100004514, symSize: 0x38 }
  - { offsetInCU: 0xA9A6, offset: 0x2033E, size: 0x8, addend: 0x0, symName: __ZStoRRSt13_Ios_FmtflagsS_, symObjAddr: 0xCC, symBinAddr: 0x1000044DC, symSize: 0x38 }
  - { offsetInCU: 0xA9DC, offset: 0x20374, size: 0x8, addend: 0x0, symName: __ZStcoSt13_Ios_Fmtflags, symObjAddr: 0xB4, symBinAddr: 0x1000044C4, symSize: 0x18 }
  - { offsetInCU: 0xAA03, offset: 0x2039B, size: 0x8, addend: 0x0, symName: __ZStorSt13_Ios_FmtflagsS_, symObjAddr: 0x94, symBinAddr: 0x1000044A4, symSize: 0x20 }
  - { offsetInCU: 0xAA39, offset: 0x203D1, size: 0x8, addend: 0x0, symName: __ZStanSt13_Ios_FmtflagsS_, symObjAddr: 0x74, symBinAddr: 0x100004484, symSize: 0x20 }
  - { offsetInCU: 0x6DC2, offset: 0x271C5, size: 0x8, addend: 0x0, symName: __ZStL8__ioinit, symObjAddr: 0x34FF8, symBinAddr: 0x100014003, symSize: 0x0 }
  - { offsetInCU: 0x6E2F, offset: 0x27232, size: 0x8, addend: 0x0, symName: __ZL14PORT_DISCOVERY, symObjAddr: 0x3278, symBinAddr: 0x10000A660, symSize: 0x0 }
  - { offsetInCU: 0x6E46, offset: 0x27249, size: 0x8, addend: 0x0, symName: __ZL15PORT_MONITORING, symObjAddr: 0x327C, symBinAddr: 0x10000A664, symSize: 0x0 }
  - { offsetInCU: 0x6E5C, offset: 0x2725F, size: 0x8, addend: 0x0, symName: __ZL15PORT_MANAGEMENT, symObjAddr: 0x3280, symBinAddr: 0x10000A668, symSize: 0x0 }
  - { offsetInCU: 0x6E6E, offset: 0x27271, size: 0x8, addend: 0x0, symName: __ZL11BUFFER_SIZE, symObjAddr: 0x3284, symBinAddr: 0x10000A66C, symSize: 0x0 }
  - { offsetInCU: 0x7426, offset: 0x27829, size: 0x8, addend: 0x0, symName: __ZNKSt13move_iteratorIPNSt7__cxx1112basic_stringIcSt11char_traitsIcESaIcEEEE4baseEv, symObjAddr: 0x31AC, symBinAddr: 0x100009188, symSize: 0x18 }
  - { offsetInCU: 0x7452, offset: 0x27855, size: 0x8, addend: 0x0, symName: __ZSteqIPNSt7__cxx1112basic_stringIcSt11char_traitsIcESaIcEEEEbRKSt13move_iteratorIT_ESB_, symObjAddr: 0x316C, symBinAddr: 0x100009148, symSize: 0x40 }
  - { offsetInCU: 0x7493, offset: 0x27896, size: 0x8, addend: 0x0, symName: __ZSt10_ConstructINSt7__cxx1112basic_stringIcSt11char_traitsIcESaIcEEEJS5_EEvPT_DpOT0_, symObjAddr: 0x3120, symBinAddr: 0x1000090FC, symSize: 0x4C }
  - { offsetInCU: 0x74E1, offset: 0x278E4, size: 0x8, addend: 0x0, symName: __ZNKSt13move_iteratorIPNSt7__cxx1112basic_stringIcSt11char_traitsIcESaIcEEEEdeEv, symObjAddr: 0x3108, symBinAddr: 0x1000090E4, symSize: 0x18 }
  - { offsetInCU: 0x750B, offset: 0x2790E, size: 0x8, addend: 0x0, symName: __ZNSt13move_iteratorIPNSt7__cxx1112basic_stringIcSt11char_traitsIcESaIcEEEEppEv, symObjAddr: 0x30E0, symBinAddr: 0x1000090BC, symSize: 0x28 }
  - { offsetInCU: 0x7531, offset: 0x27934, size: 0x8, addend: 0x0, symName: __ZStneIPNSt7__cxx1112basic_stringIcSt11char_traitsIcESaIcEEEEbRKSt13move_iteratorIT_ESB_, symObjAddr: 0x30B4, symBinAddr: 0x100009090, symSize: 0x2C }
  - { offsetInCU: 0x7572, offset: 0x27975, size: 0x8, addend: 0x0, symName: __ZSt16__do_uninit_copyISt13move_iteratorIPNSt7__cxx1112basic_stringIcSt11char_traitsIcESaIcEEEES7_ET0_T_SA_S9_, symObjAddr: 0x300C, symBinAddr: 0x100008FE8, symSize: 0xA8 }
  - { offsetInCU: 0x75D8, offset: 0x279DB, size: 0x8, addend: 0x0, symName: __ZSt19__relocate_object_aINSt7__cxx1112basic_stringIcSt11char_traitsIcESaIcEEES5_SaIS5_EEvPT_PT0_RT1_, symObjAddr: 0x2F3C, symBinAddr: 0x100008F18, symSize: 0xD0 }
  - { offsetInCU: 0x7711, offset: 0x27B14, size: 0x8, addend: 0x0, symName: __ZNSt20__uninitialized_copyILb0EE13__uninit_copyISt13move_iteratorIPNSt7__cxx1112basic_stringIcSt11char_traitsIcESaIcEEEES9_EET0_T_SC_SB_, symObjAddr: 0x2F10, symBinAddr: 0x100008EEC, symSize: 0x2C }
  - { offsetInCU: 0x7774, offset: 0x27B77, size: 0x8, addend: 0x0, symName: __ZSt4moveIRPNSt7__cxx1112basic_stringIcSt11char_traitsIcESaIcEEEEONSt16remove_referenceIT_E4typeEOS9_, symObjAddr: 0x2EFC, symBinAddr: 0x100008ED8, symSize: 0x14 }
  - { offsetInCU: 0x77A4, offset: 0x27BA7, size: 0x8, addend: 0x0, symName: __ZSt14__relocate_a_1IPNSt7__cxx1112basic_stringIcSt11char_traitsIcESaIcEEES6_SaIS5_EET0_T_S9_S8_RT1_, symObjAddr: 0x2E78, symBinAddr: 0x100008E54, symSize: 0x84 }
  - { offsetInCU: 0x7828, offset: 0x27C2B, size: 0x8, addend: 0x0, symName: __ZSt12__niter_baseIPNSt7__cxx1112basic_stringIcSt11char_traitsIcESaIcEEEET_S7_, symObjAddr: 0x2E64, symBinAddr: 0x100008E40, symSize: 0x14 }
  - { offsetInCU: 0x786F, offset: 0x27C72, size: 0x8, addend: 0x0, symName: __ZSt18uninitialized_copyISt13move_iteratorIPNSt7__cxx1112basic_stringIcSt11char_traitsIcESaIcEEEES7_ET0_T_SA_S9_, symObjAddr: 0x2E30, symBinAddr: 0x100008E0C, symSize: 0x34 }
  - { offsetInCU: 0x795D, offset: 0x27D60, size: 0x8, addend: 0x0, symName: __ZNSt13move_iteratorIPNSt7__cxx1112basic_stringIcSt11char_traitsIcESaIcEEEEC1ES6_, symObjAddr: 0x2E00, symBinAddr: 0x100008DDC, symSize: 0x30 }
  - { offsetInCU: 0x7937, offset: 0x27D3A, size: 0x8, addend: 0x0, symName: __ZSt12__relocate_aIPNSt7__cxx1112basic_stringIcSt11char_traitsIcESaIcEEES6_SaIS5_EET0_T_S9_S8_RT1_, symObjAddr: 0x2DA4, symBinAddr: 0x100008D80, symSize: 0x5C }
  - { offsetInCU: 0x79BF, offset: 0x27DC2, size: 0x8, addend: 0x0, symName: __ZNSt6vectorINSt7__cxx1112basic_stringIcSt11char_traitsIcESaIcEEESaIS5_EE11_S_max_sizeERKS6_, symObjAddr: 0x2CC4, symBinAddr: 0x100008D2C, symSize: 0x54 }
  - { offsetInCU: 0x7A71, offset: 0x27E74, size: 0x8, addend: 0x0, symName: __ZSt22__uninitialized_copy_aISt13move_iteratorIPNSt7__cxx1112basic_stringIcSt11char_traitsIcESaIcEEEES7_S6_ET0_T_SA_S9_RSaIT1_E, symObjAddr: 0x2C74, symBinAddr: 0x100008CFC, symSize: 0x30 }
  - { offsetInCU: 0x7ADD, offset: 0x27EE0, size: 0x8, addend: 0x0, symName: __ZSt32__make_move_if_noexcept_iteratorINSt7__cxx1112basic_stringIcSt11char_traitsIcESaIcEEESt13move_iteratorIPS5_EET0_PT_, symObjAddr: 0x2C50, symBinAddr: 0x100008CD8, symSize: 0x24 }
  - { offsetInCU: 0x7B17, offset: 0x27F1A, size: 0x8, addend: 0x0, symName: __ZNSt6vectorINSt7__cxx1112basic_stringIcSt11char_traitsIcESaIcEEESaIS5_EE14_S_do_relocateEPS5_S8_S8_RS6_St17integral_constantIbLb1EE, symObjAddr: 0x2C18, symBinAddr: 0x100008CA0, symSize: 0x38 }
  - { offsetInCU: 0x7B7C, offset: 0x27F7F, size: 0x8, addend: 0x0, symName: __ZNKSt6vectorINSt7__cxx1112basic_stringIcSt11char_traitsIcESaIcEEESaIS5_EE8max_sizeEv, symObjAddr: 0x2BD0, symBinAddr: 0x100008C80, symSize: 0x20 }
  - { offsetInCU: 0x7C3E, offset: 0x28041, size: 0x8, addend: 0x0, symName: __ZSt34__uninitialized_move_if_noexcept_aIPNSt7__cxx1112basic_stringIcSt11char_traitsIcESaIcEEES6_SaIS5_EET0_T_S9_S8_RT1_, symObjAddr: 0x2AC4, symBinAddr: 0x100008C30, symSize: 0x50 }
  - { offsetInCU: 0x7CB1, offset: 0x280B4, size: 0x8, addend: 0x0, symName: __ZNSt6vectorINSt7__cxx1112basic_stringIcSt11char_traitsIcESaIcEEESaIS5_EE11_S_relocateEPS5_S8_S8_RS6_, symObjAddr: 0x2A90, symBinAddr: 0x100008BFC, symSize: 0x34 }
  - { offsetInCU: 0x7D09, offset: 0x2810C, size: 0x8, addend: 0x0, symName: __ZSt12__to_addressINSt7__cxx1112basic_stringIcSt11char_traitsIcESaIcEEEEPT_S7_, symObjAddr: 0x2A7C, symBinAddr: 0x100008BE8, symSize: 0x14 }
  - { offsetInCU: 0x7D3F, offset: 0x28142, size: 0x8, addend: 0x0, symName: __ZN9__gnu_cxxmiIPNSt7__cxx1112basic_stringIcSt11char_traitsIcESaIcEEESt6vectorIS6_SaIS6_EEEENS_17__normal_iteratorIT_T0_E15difference_typeERKSE_SH_, symObjAddr: 0x29EC, symBinAddr: 0x100008BA8, symSize: 0x40 }
  - { offsetInCU: 0x7D8D, offset: 0x28190, size: 0x8, addend: 0x0, symName: __ZNKSt6vectorINSt7__cxx1112basic_stringIcSt11char_traitsIcESaIcEEESaIS5_EE12_M_check_lenEmPKc, symObjAddr: 0x291C, symBinAddr: 0x100008AD8, symSize: 0xD0 }
  - { offsetInCU: 0x7E29, offset: 0x2822C, size: 0x8, addend: 0x0, symName: __ZNSt6vectorINSt7__cxx1112basic_stringIcSt11char_traitsIcESaIcEEESaIS5_EE17_M_realloc_appendIJS5_EEEvDpOT_, symObjAddr: 0x26B8, symBinAddr: 0x100008888, symSize: 0x250 }
  - { offsetInCU: 0x8027, offset: 0x2842A, size: 0x8, addend: 0x0, symName: __ZZNSt6vectorINSt7__cxx1112basic_stringIcSt11char_traitsIcESaIcEEESaIS5_EE17_M_realloc_appendIJS5_EEEvDpOT_EN6_GuardC1EPS5_mRS6_, symObjAddr: 0x2584, symBinAddr: 0x100008754, symSize: 0x44 }
  - { offsetInCU: 0x805F, offset: 0x28462, size: 0x8, addend: 0x0, symName: __ZZNSt6vectorINSt7__cxx1112basic_stringIcSt11char_traitsIcESaIcEEESaIS5_EE17_M_realloc_appendIJS5_EEEvDpOT_EN6_GuardD1Ev, symObjAddr: 0x25C8, symBinAddr: 0x100008798, symSize: 0x60 }
  - { offsetInCU: 0x8227, offset: 0x2862A, size: 0x8, addend: 0x0, symName: __ZZNSt6vectorINSt7__cxx1112basic_stringIcSt11char_traitsIcESaIcEEESaIS5_EE17_M_realloc_appendIJS5_EEEvDpOT_EN11_Guard_eltsC1EPS5_RS6_, symObjAddr: 0x2628, symBinAddr: 0x1000087F8, symSize: 0x44 }
  - { offsetInCU: 0x8258, offset: 0x2865B, size: 0x8, addend: 0x0, symName: __ZZNSt6vectorINSt7__cxx1112basic_stringIcSt11char_traitsIcESaIcEEESaIS5_EE17_M_realloc_appendIJS5_EEEvDpOT_EN11_Guard_eltsD1Ev, symObjAddr: 0x266C, symBinAddr: 0x10000883C, symSize: 0x4C }
  - { offsetInCU: 0x827C, offset: 0x2867F, size: 0x8, addend: 0x0, symName: __ZSt7forwardINSt7__cxx1112basic_stringIcSt11char_traitsIcESaIcEEEEOT_RNSt16remove_referenceIS6_E4typeE, symObjAddr: 0x2570, symBinAddr: 0x100008740, symSize: 0x14 }
  - { offsetInCU: 0x831B, offset: 0x2871E, size: 0x8, addend: 0x0, symName: __ZSt12__str_concatINSt7__cxx1112basic_stringIcSt11char_traitsIcESaIcEEEET_PKNS6_10value_typeENS6_9size_typeES9_SA_RKNS6_14allocator_typeE, symObjAddr: 0x2468, symBinAddr: 0x100008660, symSize: 0xE0 }
  - { offsetInCU: 0x8461, offset: 0x28864, size: 0x8, addend: 0x0, symName: __ZNK9__gnu_cxx17__normal_iteratorIPNSt7__cxx1112basic_stringIcSt11char_traitsIcESaIcEEESt6vectorIS6_SaIS6_EEE4baseEv, symObjAddr: 0x2454, symBinAddr: 0x10000864C, symSize: 0x14 }
  - { offsetInCU: 0x8523, offset: 0x28926, size: 0x8, addend: 0x0, symName: __ZN9__gnu_cxx17__normal_iteratorIPNSt7__cxx1112basic_stringIcSt11char_traitsIcESaIcEEESt6vectorIS6_SaIS6_EEEC1ERKS7_, symObjAddr: 0x242C, symBinAddr: 0x100008624, symSize: 0x28 }
  - { offsetInCU: 0x8522, offset: 0x28925, size: 0x8, addend: 0x0, symName: __ZN9__gnu_cxxeqIPKNSt7__cxx1112basic_stringIcSt11char_traitsIcESaIcEEESt6vectorIS6_SaIS6_EEEEbRKNS_17__normal_iteratorIT_T0_EESH_, symObjAddr: 0x23E8, symBinAddr: 0x1000085E0, symSize: 0x44 }
  - { offsetInCU: 0x8570, offset: 0x28973, size: 0x8, addend: 0x0, symName: __ZNSt6vectorINSt7__cxx1112basic_stringIcSt11char_traitsIcESaIcEEESaIS5_EE17_M_realloc_appendIJRKS5_EEEvDpOT_, symObjAddr: 0x2118, symBinAddr: 0x10000835C, symSize: 0x284 }
  - { offsetInCU: 0x8770, offset: 0x28B73, size: 0x8, addend: 0x0, symName: __ZZNSt6vectorINSt7__cxx1112basic_stringIcSt11char_traitsIcESaIcEEESaIS5_EE17_M_realloc_appendIJRKS5_EEEvDpOT_EN6_GuardC1EPS5_mRS6_, symObjAddr: 0x1FBC, symBinAddr: 0x100008200, symSize: 0x44 }
  - { offsetInCU: 0x87A8, offset: 0x28BAB, size: 0x8, addend: 0x0, symName: __ZZNSt6vectorINSt7__cxx1112basic_stringIcSt11char_traitsIcESaIcEEESaIS5_EE17_M_realloc_appendIJRKS5_EEEvDpOT_EN6_GuardD1Ev, symObjAddr: 0x2000, symBinAddr: 0x100008244, symSize: 0x60 }
  - { offsetInCU: 0x8968, offset: 0x28D6B, size: 0x8, addend: 0x0, symName: __ZZNSt6vectorINSt7__cxx1112basic_stringIcSt11char_traitsIcESaIcEEESaIS5_EE17_M_realloc_appendIJRKS5_EEEvDpOT_EN11_Guard_eltsC1EPS5_RS6_, symObjAddr: 0x2088, symBinAddr: 0x1000082CC, symSize: 0x44 }
  - { offsetInCU: 0x8999, offset: 0x28D9C, size: 0x8, addend: 0x0, symName: __ZZNSt6vectorINSt7__cxx1112basic_stringIcSt11char_traitsIcESaIcEEESaIS5_EE17_M_realloc_appendIJRKS5_EEEvDpOT_EN11_Guard_eltsD1Ev, symObjAddr: 0x20CC, symBinAddr: 0x100008310, symSize: 0x4C }
  - { offsetInCU: 0x8971, offset: 0x28D74, size: 0x8, addend: 0x0, symName: __ZNSt6vectorINSt7__cxx1112basic_stringIcSt11char_traitsIcESaIcEEESaIS5_EE19_S_nothrow_relocateESt17integral_constantIbLb1EE, symObjAddr: 0x2074, symBinAddr: 0x1000082B8, symSize: 0x14 }
  - { offsetInCU: 0x8993, offset: 0x28D96, size: 0x8, addend: 0x0, symName: __ZNSt6vectorINSt7__cxx1112basic_stringIcSt11char_traitsIcESaIcEEESaIS5_EE15_S_use_relocateEv, symObjAddr: 0x2060, symBinAddr: 0x1000082A4, symSize: 0x14 }
  - { offsetInCU: 0x89F2, offset: 0x28DF5, size: 0x8, addend: 0x0, symName: __ZNSt6vectorINSt7__cxx1112basic_stringIcSt11char_traitsIcESaIcEEESaIS5_EE12emplace_backIJS5_EEEvDpOT_, symObjAddr: 0x1EE4, symBinAddr: 0x100008128, symSize: 0xD8 }
  - { offsetInCU: 0x8AED, offset: 0x28EF0, size: 0x8, addend: 0x0, symName: __ZSt4moveIRNSt7__cxx1112basic_stringIcSt11char_traitsIcESaIcEEEEONSt16remove_referenceIT_E4typeEOS8_, symObjAddr: 0x1E24, symBinAddr: 0x100008114, symSize: 0x14 }
  - { offsetInCU: 0x8B32, offset: 0x28F35, size: 0x8, addend: 0x0, symName: __ZStplIcSt11char_traitsIcESaIcEENSt7__cxx1112basic_stringIT_T0_T1_EERKS8_PKS5_, symObjAddr: 0x1D38, symBinAddr: 0x100008064, symSize: 0xB0 }
  - { offsetInCU: 0x8BC7, offset: 0x28FCA, size: 0x8, addend: 0x0, symName: __ZStplIcSt11char_traitsIcESaIcEENSt7__cxx1112basic_stringIT_T0_T1_EEOS8_PKS5_, symObjAddr: 0x1CF4, symBinAddr: 0x100008020, symSize: 0x44 }
  - { offsetInCU: 0x8C1E, offset: 0x29021, size: 0x8, addend: 0x0, symName: __ZNK9__gnu_cxx17__normal_iteratorIPNSt7__cxx1112basic_stringIcSt11char_traitsIcESaIcEEESt6vectorIS6_SaIS6_EEEdeEv, symObjAddr: 0x1CDC, symBinAddr: 0x100008008, symSize: 0x18 }
  - { offsetInCU: 0x8C48, offset: 0x2904B, size: 0x8, addend: 0x0, symName: __ZN9__gnu_cxx17__normal_iteratorIPNSt7__cxx1112basic_stringIcSt11char_traitsIcESaIcEEESt6vectorIS6_SaIS6_EEEppEv, symObjAddr: 0x1CB4, symBinAddr: 0x100007FE0, symSize: 0x28 }
  - { offsetInCU: 0x8C6E, offset: 0x29071, size: 0x8, addend: 0x0, symName: __ZN9__gnu_cxxneIPNSt7__cxx1112basic_stringIcSt11char_traitsIcESaIcEEESt6vectorIS6_SaIS6_EEEEbRKNS_17__normal_iteratorIT_T0_EESG_, symObjAddr: 0x1C70, symBinAddr: 0x100007F9C, symSize: 0x44 }
  - { offsetInCU: 0x8CBC, offset: 0x290BF, size: 0x8, addend: 0x0, symName: __ZNSt6vectorINSt7__cxx1112basic_stringIcSt11char_traitsIcESaIcEEESaIS5_EE3endEv, symObjAddr: 0x1C48, symBinAddr: 0x100007F74, symSize: 0x28 }
  - { offsetInCU: 0x8CE6, offset: 0x290E9, size: 0x8, addend: 0x0, symName: __ZNSt6vectorINSt7__cxx1112basic_stringIcSt11char_traitsIcESaIcEEESaIS5_EE5beginEv, symObjAddr: 0x1C24, symBinAddr: 0x100007F50, symSize: 0x24 }
  - { offsetInCU: 0x8D10, offset: 0x29113, size: 0x8, addend: 0x0, symName: __ZNSt6vectorINSt7__cxx1112basic_stringIcSt11char_traitsIcESaIcEEESaIS5_EE8pop_backEv, symObjAddr: 0x1BC4, symBinAddr: 0x100007EF0, symSize: 0x60 }
  - { offsetInCU: 0x8D90, offset: 0x29193, size: 0x8, addend: 0x0, symName: __ZNSt6vectorINSt7__cxx1112basic_stringIcSt11char_traitsIcESaIcEEESaIS5_EE5frontEv, symObjAddr: 0x1B9C, symBinAddr: 0x100007EC8, symSize: 0x28 }
  - { offsetInCU: 0x8DBA, offset: 0x291BD, size: 0x8, addend: 0x0, symName: __ZNKSt6vectorINSt7__cxx1112basic_stringIcSt11char_traitsIcESaIcEEESaIS5_EE5emptyEv, symObjAddr: 0x1B64, symBinAddr: 0x100007E90, symSize: 0x38 }
  - { offsetInCU: 0x8DE4, offset: 0x291E7, size: 0x8, addend: 0x0, symName: __ZNSt6vectorINSt7__cxx1112basic_stringIcSt11char_traitsIcESaIcEEESaIS5_EE9push_backERKS5_, symObjAddr: 0x1A68, symBinAddr: 0x100007D94, symSize: 0xFC }
  - { offsetInCU: 0x8E7C, offset: 0x2927F, size: 0x8, addend: 0x0, symName: __ZNSt6vectorINSt7__cxx1112basic_stringIcSt11char_traitsIcESaIcEEESaIS5_EE9push_backEOS5_, symObjAddr: 0x1A38, symBinAddr: 0x100007D64, symSize: 0x30 }
  - { offsetInCU: 0x8F2E, offset: 0x29331, size: 0x8, addend: 0x0, symName: __ZNSt12_Vector_baseINSt7__cxx1112basic_stringIcSt11char_traitsIcESaIcEEESaIS5_EE12_Vector_implC1Ev, symObjAddr: 0x1954, symBinAddr: 0x100007D2C, symSize: 0x38 }
  - { offsetInCU: 0x8F95, offset: 0x29398, size: 0x8, addend: 0x0, symName: __Z15get_mac_addressB5cxx11v, symObjAddr: 0x1534, symBinAddr: 0x100007BBC, symSize: 0x170 }
  - { offsetInCU: 0x90B8, offset: 0x294BB, size: 0x8, addend: 0x0, symName: __Z18format_mac_addressB5cxx11PKh, symObjAddr: 0x1430, symBinAddr: 0x100007AB8, symSize: 0x104 }
  - { offsetInCU: 0x917D, offset: 0x29580, size: 0x8, addend: 0x0, symName: __Z14rec_packet_tcpi, symObjAddr: 0x13BC, symBinAddr: 0x100007A44, symSize: 0x74 }
  - { offsetInCU: 0x91C5, offset: 0x295C8, size: 0x8, addend: 0x0, symName: __Z10rec_packeti, symObjAddr: 0x129C, symBinAddr: 0x100007924, symSize: 0x120 }
  - { offsetInCU: 0x926D, offset: 0x29670, size: 0x8, addend: 0x0, symName: __Z8send_tcp6PacketiiNSt7__cxx1112basic_stringIcSt11char_traitsIcESaIcEEEb, symObjAddr: 0x1148, symBinAddr: 0x100007808, symSize: 0x11C }
  - { offsetInCU: 0x92E4, offset: 0x296E7, size: 0x8, addend: 0x0, symName: __Z14send_broadcast6Packetii, symObjAddr: 0x1088, symBinAddr: 0x100007748, symSize: 0xC0 }
  - { offsetInCU: 0x933F, offset: 0x29742, size: 0x8, addend: 0x0, symName: __ZN6Packet10to_payloadB5cxx11Ev, symObjAddr: 0xE24, symBinAddr: 0x1000074E4, symSize: 0x264 }
  - { offsetInCU: 0x93BC, offset: 0x297BF, size: 0x8, addend: 0x0, symName: __ZN6Packet5printEv, symObjAddr: 0xBEC, symBinAddr: 0x1000072AC, symSize: 0x238 }
  - { offsetInCU: 0x9427, offset: 0x2982A, size: 0x8, addend: 0x0, symName: __ZN6Packet3popB5cxx11Ev, symObjAddr: 0xB24, symBinAddr: 0x1000071E4, symSize: 0xC8 }
  - { offsetInCU: 0x94E5, offset: 0x298E8, size: 0x8, addend: 0x0, symName: __ZN6Packet4pushENSt7__cxx1112basic_stringIcSt11char_traitsIcESaIcEEE, symObjAddr: 0xAF8, symBinAddr: 0x1000071B8, symSize: 0x2C }
  - { offsetInCU: 0x956F, offset: 0x29972, size: 0x8, addend: 0x0, symName: __ZN6PacketC1EPc, symObjAddr: 0x774, symBinAddr: 0x100006E34, symSize: 0x384 }
  - { offsetInCU: 0x96D7, offset: 0x29ADA, size: 0x8, addend: 0x0, symName: __ZN6PacketC2EPc, symObjAddr: 0x3F0, symBinAddr: 0x100006AB0, symSize: 0x384 }
  - { offsetInCU: 0x987E, offset: 0x29C81, size: 0x8, addend: 0x0, symName: __ZN6PacketC1Eiii, symObjAddr: 0x37C, symBinAddr: 0x100006A3C, symSize: 0x74 }
  - { offsetInCU: 0x98BE, offset: 0x29CC1, size: 0x8, addend: 0x0, symName: __ZN6PacketC2Eiii, symObjAddr: 0x308, symBinAddr: 0x1000069C8, symSize: 0x74 }
  - { offsetInCU: 0x9950, offset: 0x29D53, size: 0x8, addend: 0x0, symName: __ZNSt6vectorINSt7__cxx1112basic_stringIcSt11char_traitsIcESaIcEEESaIS5_EEC1Ev, symObjAddr: 0x2E8, symBinAddr: 0x1000069A8, symSize: 0x20 }
  - { offsetInCU: 0x9994, offset: 0x29D97, size: 0x8, addend: 0x0, symName: __ZNSt12_Vector_baseINSt7__cxx1112basic_stringIcSt11char_traitsIcESaIcEEESaIS5_EEC2Ev, symObjAddr: 0x2C8, symBinAddr: 0x100006988, symSize: 0x20 }
  - { offsetInCU: 0x9AAE, offset: 0x29EB1, size: 0x8, addend: 0x0, symName: __ZL12_OSSwapInt16t, symObjAddr: 0x0, symBinAddr: 0x100006950, symSize: 0x38 }
...
